; ModuleID = 'commission.bc'
target datalayout = "e-p:64:64:64-i1:8:8-i8:8:8-i16:16:16-i32:32:32-i64:64:64-f32:32:32-f64:64:64-v64:64:64-v128:128:128-a0:0:64-s0:64:64-f80:128:128-n8:16:32:64-S128"
target triple = "x86_64-pc-linux-gnu"

%"class.std::ios_base::Init" = type { i8 }
%"class.std::vector" = type { %"struct.std::_Vector_base" }
%"struct.std::_Vector_base" = type { %"struct.std::_Vector_base<std::basic_string<char>, std::allocator<std::basic_string<char> > >::_Vector_impl" }
%"struct.std::_Vector_base<std::basic_string<char>, std::allocator<std::basic_string<char> > >::_Vector_impl" = type { %"class.std::basic_string"*, %"class.std::basic_string"*, %"class.std::basic_string"* }
%"class.std::basic_string" = type { %"struct.std::basic_string<char, std::char_traits<char>, std::allocator<char> >::_Alloc_hider" }
%"struct.std::basic_string<char, std::char_traits<char>, std::allocator<char> >::_Alloc_hider" = type { i8* }
%"class.std::allocator.0" = type { i8 }
%"class.std::basic_stringstream" = type { %"class.std::basic_iostream.base", %"class.std::basic_stringbuf", %"class.std::basic_ios" }
%"class.std::basic_iostream.base" = type { %"class.std::basic_istream.base", %"class.std::basic_ostream.base" }
%"class.std::basic_istream.base" = type { i32 (...)**, i64 }
%"class.std::basic_ostream.base" = type { i32 (...)** }
%"class.std::basic_stringbuf" = type { %"class.std::basic_streambuf", i32, %"class.std::basic_string" }
%"class.std::basic_streambuf" = type { i32 (...)**, i8*, i8*, i8*, i8*, i8*, i8*, %"class.std::locale" }
%"class.std::locale" = type { %"class.std::locale::_Impl"* }
%"class.std::locale::_Impl" = type { i32, %"class.std::locale::facet"**, i64, %"class.std::locale::facet"**, i8** }
%"class.std::locale::facet" = type { i32 (...)**, i32 }
%"class.std::basic_ios" = type { %"class.std::ios_base", %"class.std::basic_ostream"*, i8, i8, %"class.std::basic_streambuf"*, %"class.std::ctype"*, %"class.std::num_put"*, %"class.std::num_get"* }
%"class.std::ios_base" = type { i32 (...)**, i64, i64, i32, i32, i32, %"struct.std::ios_base::_Callback_list"*, %"struct.std::ios_base::_Words", [8 x %"struct.std::ios_base::_Words"], i32, %"struct.std::ios_base::_Words"*, %"class.std::locale" }
%"struct.std::ios_base::_Callback_list" = type { %"struct.std::ios_base::_Callback_list"*, void (i32, %"class.std::ios_base"*, i32)*, i32, i32 }
%"struct.std::ios_base::_Words" = type { i8*, i64 }
%"class.std::basic_ostream" = type { i32 (...)**, %"class.std::basic_ios" }
%"class.std::ctype" = type { %"class.std::locale::facet", %struct.__locale_struct*, i8, i32*, i32*, i16*, i8, [256 x i8], [256 x i8], i8 }
%struct.__locale_struct = type { [13 x %struct.__locale_data*], i16*, i32*, i32*, [13 x i8*] }
%struct.__locale_data = type opaque
%"class.std::num_put" = type { %"class.std::locale::facet" }
%"class.std::num_get" = type { %"class.std::locale::facet" }
%"class.std::allocator" = type { i8 }
%"class.__gnu_cxx::new_allocator" = type { i8 }
%"class.std::move_iterator" = type { %"class.std::basic_string"* }

@_ZStL8__ioinit = internal global %"class.std::ios_base::Init" zeroinitializer, align 1
@__dso_handle = external global i8
@.str = private unnamed_addr constant [33 x i8] c"locks should be in range of 1~70\00", align 1
@.str1 = private unnamed_addr constant [34 x i8] c"stocks should be in range of 1~80\00", align 1
@.str2 = private unnamed_addr constant [35 x i8] c"barrels should be in range of 1~90\00", align 1
@.str3 = private unnamed_addr constant [1 x i8] zeroinitializer, align 1
@.str4 = private unnamed_addr constant [4 x i8] c"123\00", align 1
@.str5 = private unnamed_addr constant [4 x i8] c" & \00", align 1
@.str6 = private unnamed_addr constant [2 x i8] c"$\00", align 1
@.str7 = private unnamed_addr constant [2 x i8] c"l\00", align 1
@.str8 = private unnamed_addr constant [2 x i8] c"s\00", align 1
@.str9 = private unnamed_addr constant [2 x i8] c"b\00", align 1
@.str10 = private unnamed_addr constant [28 x i8] c"vector::_M_emplace_back_aux\00", align 1
@llvm.global_ctors = appending global [1 x { i32, void ()* }] [{ i32, void ()* } { i32 65535, void ()* @_GLOBAL__I_a }]
@.str11 = private unnamed_addr constant [60 x i8] c"/home/klee/klee_src/runtime/Intrinsic/klee_div_zero_check.c\00", align 1
@.str112 = private unnamed_addr constant [15 x i8] c"divide by zero\00", align 1
@.str213 = private unnamed_addr constant [8 x i8] c"div.err\00", align 1
@.str314 = private unnamed_addr constant [8 x i8] c"IGNORED\00", align 1
@.str14 = private unnamed_addr constant [16 x i8] c"overshift error\00", align 1
@.str25 = private unnamed_addr constant [14 x i8] c"overshift.err\00", align 1
@.str615 = private unnamed_addr constant [51 x i8] c"/home/klee/klee_src/runtime/Intrinsic/klee_range.c\00", align 1
@.str17 = private unnamed_addr constant [14 x i8] c"invalid range\00", align 1
@.str28 = private unnamed_addr constant [5 x i8] c"user\00", align 1

define internal void @__cxx_global_var_init() section ".text.startup" {
  call void @_ZNSt8ios_base4InitC1Ev(%"class.std::ios_base::Init"* @_ZStL8__ioinit), !dbg !1482
  %1 = call i32 @__cxa_atexit(void (i8*)* bitcast (void (%"class.std::ios_base::Init"*)* @_ZNSt8ios_base4InitD1Ev to void (i8*)*), i8* getelementptr inbounds (%"class.std::ios_base::Init"* @_ZStL8__ioinit, i32 0, i32 0), i8* @__dso_handle) #2, !dbg !1482
  ret void, !dbg !1482
}

declare void @_ZNSt8ios_base4InitC1Ev(%"class.std::ios_base::Init"*) #0

; Function Attrs: nounwind
declare void @_ZNSt8ios_base4InitD1Ev(%"class.std::ios_base::Init"*) #1

; Function Attrs: nounwind
declare i32 @__cxa_atexit(void (i8*)*, i8*, i8*) #2

; Function Attrs: uwtable
define void @_Z10commissioniii(i32 %locks, i32 %stocks, i32 %barrels) #3 {
  %1 = alloca i32, align 4
  %2 = alloca i32, align 4
  %3 = alloca i32, align 4
  %invalid_msg = alloca %"class.std::vector", align 8
  %4 = alloca %"class.std::basic_string", align 8
  %5 = alloca %"class.std::allocator.0", align 1
  %6 = alloca i8*
  %7 = alloca i32
  %8 = alloca %"class.std::basic_string", align 8
  %9 = alloca %"class.std::allocator.0", align 1
  %10 = alloca %"class.std::basic_string", align 8
  %11 = alloca %"class.std::allocator.0", align 1
  %error_msg = alloca %"class.std::basic_string", align 8
  %12 = alloca %"class.std::allocator.0", align 1
  %i = alloca i32, align 4
  %c = alloca double, align 8
  %total = alloca double, align 8
  %ss = alloca %"class.std::basic_stringstream", align 8
  %result = alloca %"class.std::basic_string", align 8
  %13 = alloca %"class.std::basic_string", align 8
  store i32 %locks, i32* %1, align 4
  store i32 %stocks, i32* %2, align 4
  store i32 %barrels, i32* %3, align 4
  call void @_ZNSt6vectorISsSaISsEEC2Ev(%"class.std::vector"* %invalid_msg), !dbg !1483
  call void @_ZNSt6vectorISsSaISsEE5clearEv(%"class.std::vector"* %invalid_msg) #2, !dbg !1485
  %14 = load i32* %1, align 4, !dbg !1486
  %15 = icmp slt i32 %14, 1, !dbg !1486
  %16 = load i32* %1, align 4, !dbg !1486
  %17 = icmp sgt i32 %16, 70, !dbg !1486
  %or.cond = or i1 %15, %17, !dbg !1486
  br i1 %or.cond, label %18, label %30, !dbg !1486

; <label>:18                                      ; preds = %0
  call void @_ZNSaIcEC1Ev(%"class.std::allocator.0"* %5) #2, !dbg !1488
  invoke void @_ZNSsC1EPKcRKSaIcE(%"class.std::basic_string"* %4, i8* getelementptr inbounds ([33 x i8]* @.str, i32 0, i32 0), %"class.std::allocator.0"* %5)
          to label %19 unwind label %21, !dbg !1488

; <label>:19                                      ; preds = %18
  invoke void @_ZNSt6vectorISsSaISsEE9push_backEOSs(%"class.std::vector"* %invalid_msg, %"class.std::basic_string"* %4)
          to label %20 unwind label %25, !dbg !1488

; <label>:20                                      ; preds = %19
  call void @_ZNSsD1Ev(%"class.std::basic_string"* %4) #2, !dbg !1488
  call void @_ZNSaIcED1Ev(%"class.std::allocator.0"* %5) #2, !dbg !1489
  br label %30, !dbg !1489

; <label>:21                                      ; preds = %18
  %22 = landingpad { i8*, i32 } personality i8* bitcast (i32 (...)* @__gxx_personality_v0 to i8*)
          cleanup, !dbg !1489
  %23 = extractvalue { i8*, i32 } %22, 0, !dbg !1489
  store i8* %23, i8** %6, !dbg !1489
  %24 = extractvalue { i8*, i32 } %22, 1, !dbg !1489
  store i32 %24, i32* %7, !dbg !1489
  br label %29, !dbg !1489

; <label>:25                                      ; preds = %19
  %26 = landingpad { i8*, i32 } personality i8* bitcast (i32 (...)* @__gxx_personality_v0 to i8*)
          cleanup, !dbg !1489
  %27 = extractvalue { i8*, i32 } %26, 0, !dbg !1489
  store i8* %27, i8** %6, !dbg !1489
  %28 = extractvalue { i8*, i32 } %26, 1, !dbg !1489
  store i32 %28, i32* %7, !dbg !1489
  call void @_ZNSsD1Ev(%"class.std::basic_string"* %4) #2, !dbg !1489
  br label %29, !dbg !1489

; <label>:29                                      ; preds = %25, %21
  call void @_ZNSaIcED1Ev(%"class.std::allocator.0"* %5) #2, !dbg !1489
  br label %147, !dbg !1489

; <label>:30                                      ; preds = %0, %20
  %31 = load i32* %2, align 4, !dbg !1490
  %32 = icmp slt i32 %31, 1, !dbg !1490
  %33 = load i32* %2, align 4, !dbg !1490
  %34 = icmp sgt i32 %33, 80, !dbg !1490
  %or.cond3 = or i1 %32, %34, !dbg !1490
  br i1 %or.cond3, label %35, label %47, !dbg !1490

; <label>:35                                      ; preds = %30
  call void @_ZNSaIcEC1Ev(%"class.std::allocator.0"* %9) #2, !dbg !1492
  invoke void @_ZNSsC1EPKcRKSaIcE(%"class.std::basic_string"* %8, i8* getelementptr inbounds ([34 x i8]* @.str1, i32 0, i32 0), %"class.std::allocator.0"* %9)
          to label %36 unwind label %38, !dbg !1492

; <label>:36                                      ; preds = %35
  invoke void @_ZNSt6vectorISsSaISsEE9push_backEOSs(%"class.std::vector"* %invalid_msg, %"class.std::basic_string"* %8)
          to label %37 unwind label %42, !dbg !1492

; <label>:37                                      ; preds = %36
  call void @_ZNSsD1Ev(%"class.std::basic_string"* %8) #2, !dbg !1492
  call void @_ZNSaIcED1Ev(%"class.std::allocator.0"* %9) #2, !dbg !1493
  br label %47, !dbg !1493

; <label>:38                                      ; preds = %35
  %39 = landingpad { i8*, i32 } personality i8* bitcast (i32 (...)* @__gxx_personality_v0 to i8*)
          cleanup, !dbg !1493
  %40 = extractvalue { i8*, i32 } %39, 0, !dbg !1493
  store i8* %40, i8** %6, !dbg !1493
  %41 = extractvalue { i8*, i32 } %39, 1, !dbg !1493
  store i32 %41, i32* %7, !dbg !1493
  br label %46, !dbg !1493

; <label>:42                                      ; preds = %36
  %43 = landingpad { i8*, i32 } personality i8* bitcast (i32 (...)* @__gxx_personality_v0 to i8*)
          cleanup, !dbg !1493
  %44 = extractvalue { i8*, i32 } %43, 0, !dbg !1493
  store i8* %44, i8** %6, !dbg !1493
  %45 = extractvalue { i8*, i32 } %43, 1, !dbg !1493
  store i32 %45, i32* %7, !dbg !1493
  call void @_ZNSsD1Ev(%"class.std::basic_string"* %8) #2, !dbg !1493
  br label %46, !dbg !1493

; <label>:46                                      ; preds = %42, %38
  call void @_ZNSaIcED1Ev(%"class.std::allocator.0"* %9) #2, !dbg !1493
  br label %147, !dbg !1493

; <label>:47                                      ; preds = %30, %37
  %48 = load i32* %3, align 4, !dbg !1494
  %49 = icmp slt i32 %48, 1, !dbg !1494
  %50 = load i32* %3, align 4, !dbg !1494
  %51 = icmp sgt i32 %50, 90, !dbg !1494
  %or.cond5 = or i1 %49, %51, !dbg !1494
  br i1 %or.cond5, label %52, label %64, !dbg !1494

; <label>:52                                      ; preds = %47
  call void @_ZNSaIcEC1Ev(%"class.std::allocator.0"* %11) #2, !dbg !1496
  invoke void @_ZNSsC1EPKcRKSaIcE(%"class.std::basic_string"* %10, i8* getelementptr inbounds ([35 x i8]* @.str2, i32 0, i32 0), %"class.std::allocator.0"* %11)
          to label %53 unwind label %55, !dbg !1496

; <label>:53                                      ; preds = %52
  invoke void @_ZNSt6vectorISsSaISsEE9push_backEOSs(%"class.std::vector"* %invalid_msg, %"class.std::basic_string"* %10)
          to label %54 unwind label %59, !dbg !1496

; <label>:54                                      ; preds = %53
  call void @_ZNSsD1Ev(%"class.std::basic_string"* %10) #2, !dbg !1496
  call void @_ZNSaIcED1Ev(%"class.std::allocator.0"* %11) #2, !dbg !1497
  br label %64, !dbg !1497

; <label>:55                                      ; preds = %52
  %56 = landingpad { i8*, i32 } personality i8* bitcast (i32 (...)* @__gxx_personality_v0 to i8*)
          cleanup, !dbg !1497
  %57 = extractvalue { i8*, i32 } %56, 0, !dbg !1497
  store i8* %57, i8** %6, !dbg !1497
  %58 = extractvalue { i8*, i32 } %56, 1, !dbg !1497
  store i32 %58, i32* %7, !dbg !1497
  br label %63, !dbg !1497

; <label>:59                                      ; preds = %53
  %60 = landingpad { i8*, i32 } personality i8* bitcast (i32 (...)* @__gxx_personality_v0 to i8*)
          cleanup, !dbg !1497
  %61 = extractvalue { i8*, i32 } %60, 0, !dbg !1497
  store i8* %61, i8** %6, !dbg !1497
  %62 = extractvalue { i8*, i32 } %60, 1, !dbg !1497
  store i32 %62, i32* %7, !dbg !1497
  call void @_ZNSsD1Ev(%"class.std::basic_string"* %10) #2, !dbg !1497
  br label %63, !dbg !1497

; <label>:63                                      ; preds = %59, %55
  call void @_ZNSaIcED1Ev(%"class.std::allocator.0"* %11) #2, !dbg !1497
  br label %147, !dbg !1497

; <label>:64                                      ; preds = %47, %54
  %65 = call i64 @_ZNKSt6vectorISsSaISsEE4sizeEv(%"class.std::vector"* %invalid_msg) #2, !dbg !1498
  %66 = icmp ugt i64 %65, 0, !dbg !1498
  br i1 %66, label %67, label %96, !dbg !1498

; <label>:67                                      ; preds = %64
  call void @_ZNSaIcEC1Ev(%"class.std::allocator.0"* %12) #2, !dbg !1500
  invoke void @_ZNSsC1EPKcRKSaIcE(%"class.std::basic_string"* %error_msg, i8* getelementptr inbounds ([1 x i8]* @.str3, i32 0, i32 0), %"class.std::allocator.0"* %12)
          to label %68 unwind label %84, !dbg !1500

; <label>:68                                      ; preds = %67
  call void @_ZNSaIcED1Ev(%"class.std::allocator.0"* %12) #2, !dbg !1500
  store i32 0, i32* %i, align 4, !dbg !1502
  br label %69, !dbg !1502

; <label>:69                                      ; preds = %92, %68
  %70 = load i32* %i, align 4, !dbg !1502
  %71 = sext i32 %70 to i64, !dbg !1502
  %72 = call i64 @_ZNKSt6vectorISsSaISsEE4sizeEv(%"class.std::vector"* %invalid_msg) #2, !dbg !1502
  %73 = icmp ult i64 %71, %72, !dbg !1502
  br i1 %73, label %74, label %95, !dbg !1502

; <label>:74                                      ; preds = %69
  %75 = invoke %"class.std::basic_string"* @_ZNSspLEPKc(%"class.std::basic_string"* %error_msg, i8* getelementptr inbounds ([4 x i8]* @.str4, i32 0, i32 0))
          to label %76 unwind label %88, !dbg !1504

; <label>:76                                      ; preds = %74
  %77 = load i32* %i, align 4, !dbg !1506
  %78 = sext i32 %77 to i64, !dbg !1506
  %79 = call i64 @_ZNKSt6vectorISsSaISsEE4sizeEv(%"class.std::vector"* %invalid_msg) #2, !dbg !1506
  %80 = sub i64 %79, 1, !dbg !1506
  %81 = icmp ne i64 %78, %80, !dbg !1506
  br i1 %81, label %82, label %92, !dbg !1506

; <label>:82                                      ; preds = %76
  %83 = invoke %"class.std::basic_string"* @_ZNSspLEPKc(%"class.std::basic_string"* %error_msg, i8* getelementptr inbounds ([4 x i8]* @.str5, i32 0, i32 0))
          to label %92 unwind label %88, !dbg !1508

; <label>:84                                      ; preds = %67
  %85 = landingpad { i8*, i32 } personality i8* bitcast (i32 (...)* @__gxx_personality_v0 to i8*)
          cleanup, !dbg !1509
  %86 = extractvalue { i8*, i32 } %85, 0, !dbg !1509
  store i8* %86, i8** %6, !dbg !1509
  %87 = extractvalue { i8*, i32 } %85, 1, !dbg !1509
  store i32 %87, i32* %7, !dbg !1509
  call void @_ZNSaIcED1Ev(%"class.std::allocator.0"* %12) #2, !dbg !1509
  br label %147, !dbg !1509

; <label>:88                                      ; preds = %82, %74
  %89 = landingpad { i8*, i32 } personality i8* bitcast (i32 (...)* @__gxx_personality_v0 to i8*)
          cleanup, !dbg !1510
  %90 = extractvalue { i8*, i32 } %89, 0, !dbg !1510
  store i8* %90, i8** %6, !dbg !1510
  %91 = extractvalue { i8*, i32 } %89, 1, !dbg !1510
  store i32 %91, i32* %7, !dbg !1510
  call void @_ZNSsD1Ev(%"class.std::basic_string"* %error_msg) #2, !dbg !1511
  br label %147, !dbg !1511

; <label>:92                                      ; preds = %76, %82
  %93 = load i32* %i, align 4, !dbg !1502
  %94 = add nsw i32 %93, 1, !dbg !1502
  store i32 %94, i32* %i, align 4, !dbg !1502
  br label %69, !dbg !1502

; <label>:95                                      ; preds = %69
  call void @_ZNSsD1Ev(%"class.std::basic_string"* %error_msg) #2, !dbg !1512
  br label %96, !dbg !1511

; <label>:96                                      ; preds = %95, %64
  store double 0.000000e+00, double* %c, align 8, !dbg !1513
  %97 = load i32* %1, align 4, !dbg !1514
  %98 = mul nsw i32 %97, 45, !dbg !1514
  %99 = load i32* %2, align 4, !dbg !1514
  %100 = mul nsw i32 %99, 30, !dbg !1514
  %101 = add nsw i32 %98, %100, !dbg !1514
  %102 = load i32* %3, align 4, !dbg !1514
  %103 = mul nsw i32 %102, 25, !dbg !1514
  %104 = add nsw i32 %101, %103, !dbg !1514
  %105 = sitofp i32 %104 to double, !dbg !1514
  store double %105, double* %total, align 8, !dbg !1514
  %106 = load double* %total, align 8, !dbg !1515
  %107 = fcmp ogt double %106, 1.800000e+03, !dbg !1515
  %108 = load double* %total, align 8, !dbg !1517
  br i1 %107, label %109, label %114, !dbg !1515

; <label>:109                                     ; preds = %96
  %110 = fsub double %108, 1.800000e+03, !dbg !1517
  %111 = fmul double %110, 2.000000e-01, !dbg !1517
  %112 = fadd double %111, 1.200000e+02, !dbg !1517
  %113 = fadd double %112, 1.000000e+02, !dbg !1517
  store double %113, double* %c, align 8, !dbg !1517
  br label %123, !dbg !1519

; <label>:114                                     ; preds = %96
  %115 = fcmp ogt double %108, 1.000000e+03, !dbg !1520
  %116 = load double* %total, align 8, !dbg !1522
  br i1 %115, label %117, label %121, !dbg !1520

; <label>:117                                     ; preds = %114
  %118 = fsub double %116, 1.000000e+03, !dbg !1522
  %119 = fmul double %118, 1.500000e-01, !dbg !1522
  %120 = fadd double %119, 1.000000e+02, !dbg !1522
  store double %120, double* %c, align 8, !dbg !1522
  br label %123, !dbg !1524

; <label>:121                                     ; preds = %114
  %122 = fmul double %116, 1.000000e-01, !dbg !1525
  store double %122, double* %c, align 8, !dbg !1525
  br label %123

; <label>:123                                     ; preds = %117, %121, %109
  %124 = call i32 @_ZStorSt13_Ios_OpenmodeS_(i32 16, i32 8), !dbg !1527
  invoke void @_ZNSt18basic_stringstreamIcSt11char_traitsIcESaIcEEC1ESt13_Ios_Openmode(%"class.std::basic_stringstream"* %ss, i32 %124)
          to label %125 unwind label %134, !dbg !1527

; <label>:125                                     ; preds = %123
  %126 = bitcast %"class.std::basic_stringstream"* %ss to i8*, !dbg !1528
  %127 = getelementptr inbounds i8* %126, i64 16, !dbg !1528
  %128 = bitcast i8* %127 to %"class.std::basic_ostream"*, !dbg !1528
  %129 = load double* %c, align 8, !dbg !1528
  %130 = invoke %"class.std::basic_ostream"* @_ZNSolsEd(%"class.std::basic_ostream"* %128, double %129)
          to label %131 unwind label %138, !dbg !1528

; <label>:131                                     ; preds = %125
  invoke void @_ZNKSt18basic_stringstreamIcSt11char_traitsIcESaIcEE3strEv(%"class.std::basic_string"* sret %13, %"class.std::basic_stringstream"* %ss)
          to label %132 unwind label %138, !dbg !1529

; <label>:132                                     ; preds = %131
  invoke void @_ZStplIcSt11char_traitsIcESaIcEESbIT_T0_T1_EPKS3_OS6_(%"class.std::basic_string"* sret %result, i8* getelementptr inbounds ([2 x i8]* @.str6, i32 0, i32 0), %"class.std::basic_string"* %13)
          to label %133 unwind label %142, !dbg !1529

; <label>:133                                     ; preds = %132
  call void @_ZNSsD1Ev(%"class.std::basic_string"* %13) #2, !dbg !1529
  call void @_ZNSsD1Ev(%"class.std::basic_string"* %result) #2, !dbg !1530
  call void @_ZNSt18basic_stringstreamIcSt11char_traitsIcESaIcEED1Ev(%"class.std::basic_stringstream"* %ss) #2, !dbg !1530
  call void @_ZNSt6vectorISsSaISsEED2Ev(%"class.std::vector"* %invalid_msg) #2, !dbg !1530
  ret void, !dbg !1530

; <label>:134                                     ; preds = %123
  %135 = landingpad { i8*, i32 } personality i8* bitcast (i32 (...)* @__gxx_personality_v0 to i8*)
          cleanup, !dbg !1527
  %136 = extractvalue { i8*, i32 } %135, 0, !dbg !1527
  store i8* %136, i8** %6, !dbg !1527
  %137 = extractvalue { i8*, i32 } %135, 1, !dbg !1527
  store i32 %137, i32* %7, !dbg !1527
  br label %147, !dbg !1527

; <label>:138                                     ; preds = %131, %125
  %139 = landingpad { i8*, i32 } personality i8* bitcast (i32 (...)* @__gxx_personality_v0 to i8*)
          cleanup, !dbg !1530
  %140 = extractvalue { i8*, i32 } %139, 0, !dbg !1530
  store i8* %140, i8** %6, !dbg !1530
  %141 = extractvalue { i8*, i32 } %139, 1, !dbg !1530
  store i32 %141, i32* %7, !dbg !1530
  br label %146, !dbg !1530

; <label>:142                                     ; preds = %132
  %143 = landingpad { i8*, i32 } personality i8* bitcast (i32 (...)* @__gxx_personality_v0 to i8*)
          cleanup, !dbg !1530
  %144 = extractvalue { i8*, i32 } %143, 0, !dbg !1530
  store i8* %144, i8** %6, !dbg !1530
  %145 = extractvalue { i8*, i32 } %143, 1, !dbg !1530
  store i32 %145, i32* %7, !dbg !1530
  call void @_ZNSsD1Ev(%"class.std::basic_string"* %13) #2, !dbg !1530
  br label %146, !dbg !1530

; <label>:146                                     ; preds = %142, %138
  call void @_ZNSt18basic_stringstreamIcSt11char_traitsIcESaIcEED1Ev(%"class.std::basic_stringstream"* %ss) #2, !dbg !1530
  br label %147, !dbg !1530

; <label>:147                                     ; preds = %146, %134, %88, %84, %63, %46, %29
  call void @_ZNSt6vectorISsSaISsEED2Ev(%"class.std::vector"* %invalid_msg) #2, !dbg !1530
  %148 = load i8** %6, !dbg !1530
  %149 = load i32* %7, !dbg !1530
  %150 = insertvalue { i8*, i32 } undef, i8* %148, 0, !dbg !1530
  %151 = insertvalue { i8*, i32 } %150, i32 %149, 1, !dbg !1530
  resume { i8*, i32 } %151, !dbg !1530
}

; Function Attrs: nounwind readnone
declare void @llvm.dbg.declare(metadata, metadata) #4

; Function Attrs: uwtable
define linkonce_odr void @_ZNSt6vectorISsSaISsEEC2Ev(%"class.std::vector"* %this) unnamed_addr #3 align 2 {
  %1 = alloca %"class.std::vector"*, align 8
  store %"class.std::vector"* %this, %"class.std::vector"** %1, align 8
  %2 = load %"class.std::vector"** %1
  %3 = bitcast %"class.std::vector"* %2 to %"struct.std::_Vector_base"*, !dbg !1531
  call void @_ZNSt12_Vector_baseISsSaISsEEC2Ev(%"struct.std::_Vector_base"* %3), !dbg !1531
  ret void, !dbg !1531
}

; Function Attrs: nounwind uwtable
define linkonce_odr void @_ZNSt6vectorISsSaISsEE5clearEv(%"class.std::vector"* %this) #5 align 2 {
  %1 = alloca %"class.std::vector"*, align 8
  store %"class.std::vector"* %this, %"class.std::vector"** %1, align 8
  %2 = load %"class.std::vector"** %1
  %3 = bitcast %"class.std::vector"* %2 to %"struct.std::_Vector_base"*, !dbg !1533
  %4 = getelementptr inbounds %"struct.std::_Vector_base"* %3, i32 0, i32 0, !dbg !1533
  %5 = getelementptr inbounds %"struct.std::_Vector_base<std::basic_string<char>, std::allocator<std::basic_string<char> > >::_Vector_impl"* %4, i32 0, i32 0, !dbg !1533
  %6 = load %"class.std::basic_string"** %5, align 8, !dbg !1533
  invoke void @_ZNSt6vectorISsSaISsEE15_M_erase_at_endEPSs(%"class.std::vector"* %2, %"class.std::basic_string"* %6)
          to label %7 unwind label %8, !dbg !1533

; <label>:7                                       ; preds = %0
  ret void, !dbg !1533

; <label>:8                                       ; preds = %0
  %9 = landingpad { i8*, i32 } personality i8* bitcast (i32 (...)* @__gxx_personality_v0 to i8*)
          catch i8* null, !dbg !1533
  %10 = extractvalue { i8*, i32 } %9, 0, !dbg !1533
  call void @__clang_call_terminate(i8* %10) #12, !dbg !1533
  unreachable, !dbg !1533
}

; Function Attrs: uwtable
define linkonce_odr void @_ZNSt6vectorISsSaISsEE9push_backEOSs(%"class.std::vector"* %this, %"class.std::basic_string"* %__x) #3 align 2 {
  %1 = alloca %"class.std::vector"*, align 8
  %2 = alloca %"class.std::basic_string"*, align 8
  store %"class.std::vector"* %this, %"class.std::vector"** %1, align 8
  store %"class.std::basic_string"* %__x, %"class.std::basic_string"** %2, align 8
  %3 = load %"class.std::vector"** %1
  %4 = load %"class.std::basic_string"** %2, align 8, !dbg !1535
  %5 = call %"class.std::basic_string"* @_ZSt4moveIRSsEONSt16remove_referenceIT_E4typeEOS2_(%"class.std::basic_string"* %4) #2, !dbg !1535
  call void @_ZNSt6vectorISsSaISsEE12emplace_backIJSsEEEvDpOT_(%"class.std::vector"* %3, %"class.std::basic_string"* %5), !dbg !1535
  ret void, !dbg !1535
}

declare void @_ZNSsC1EPKcRKSaIcE(%"class.std::basic_string"*, i8*, %"class.std::allocator.0"*) #0

; Function Attrs: nounwind
declare void @_ZNSaIcEC1Ev(%"class.std::allocator.0"*) #1

declare i32 @__gxx_personality_v0(...)

; Function Attrs: nounwind
declare void @_ZNSsD1Ev(%"class.std::basic_string"*) #1

; Function Attrs: nounwind
declare void @_ZNSaIcED1Ev(%"class.std::allocator.0"*) #1

; Function Attrs: nounwind uwtable
define linkonce_odr i64 @_ZNKSt6vectorISsSaISsEE4sizeEv(%"class.std::vector"* %this) #5 align 2 {
  %1 = alloca %"class.std::vector"*, align 8
  store %"class.std::vector"* %this, %"class.std::vector"** %1, align 8
  %2 = load %"class.std::vector"** %1
  %3 = bitcast %"class.std::vector"* %2 to %"struct.std::_Vector_base"*, !dbg !1536
  %4 = getelementptr inbounds %"struct.std::_Vector_base"* %3, i32 0, i32 0, !dbg !1536
  %5 = getelementptr inbounds %"struct.std::_Vector_base<std::basic_string<char>, std::allocator<std::basic_string<char> > >::_Vector_impl"* %4, i32 0, i32 1, !dbg !1536
  %6 = load %"class.std::basic_string"** %5, align 8, !dbg !1536
  %7 = bitcast %"class.std::vector"* %2 to %"struct.std::_Vector_base"*, !dbg !1536
  %8 = getelementptr inbounds %"struct.std::_Vector_base"* %7, i32 0, i32 0, !dbg !1536
  %9 = getelementptr inbounds %"struct.std::_Vector_base<std::basic_string<char>, std::allocator<std::basic_string<char> > >::_Vector_impl"* %8, i32 0, i32 0, !dbg !1536
  %10 = load %"class.std::basic_string"** %9, align 8, !dbg !1536
  %11 = ptrtoint %"class.std::basic_string"* %6 to i64, !dbg !1536
  %12 = ptrtoint %"class.std::basic_string"* %10 to i64, !dbg !1536
  %13 = sub i64 %11, %12, !dbg !1536
  %int_cast_to_i64 = bitcast i64 8 to i64
  call void @klee_div_zero_check(i64 %int_cast_to_i64), !dbg !1536
  %14 = sdiv exact i64 %13, 8, !dbg !1536
  ret i64 %14, !dbg !1536
}

declare %"class.std::basic_string"* @_ZNSspLEPKc(%"class.std::basic_string"*, i8*) #0

declare void @_ZNSt18basic_stringstreamIcSt11char_traitsIcESaIcEEC1ESt13_Ios_Openmode(%"class.std::basic_stringstream"*, i32) #0

; Function Attrs: inlinehint nounwind uwtable
define linkonce_odr i32 @_ZStorSt13_Ios_OpenmodeS_(i32 %__a, i32 %__b) #6 {
  %1 = alloca i32, align 4
  %2 = alloca i32, align 4
  store i32 %__a, i32* %1, align 4
  store i32 %__b, i32* %2, align 4
  %3 = load i32* %1, align 4, !dbg !1538
  %4 = load i32* %2, align 4, !dbg !1538
  %5 = or i32 %3, %4, !dbg !1538
  ret i32 %5, !dbg !1538
}

declare %"class.std::basic_ostream"* @_ZNSolsEd(%"class.std::basic_ostream"*, double) #0

; Function Attrs: inlinehint uwtable
define linkonce_odr void @_ZStplIcSt11char_traitsIcESaIcEESbIT_T0_T1_EPKS3_OS6_(%"class.std::basic_string"* noalias sret %agg.result, i8* %__lhs, %"class.std::basic_string"* %__rhs) #7 {
  %1 = alloca i8*, align 8
  %2 = alloca %"class.std::basic_string"*, align 8
  store i8* %__lhs, i8** %1, align 8
  store %"class.std::basic_string"* %__rhs, %"class.std::basic_string"** %2, align 8
  %3 = load %"class.std::basic_string"** %2, align 8, !dbg !1540
  %4 = load i8** %1, align 8, !dbg !1540
  %5 = call %"class.std::basic_string"* @_ZNSs6insertEmPKc(%"class.std::basic_string"* %3, i64 0, i8* %4), !dbg !1540
  %6 = call %"class.std::basic_string"* @_ZSt4moveIRSsEONSt16remove_referenceIT_E4typeEOS2_(%"class.std::basic_string"* %5) #2, !dbg !1540
  call void @_ZNSsC1EOSs(%"class.std::basic_string"* %agg.result, %"class.std::basic_string"* %6) #2, !dbg !1540
  ret void, !dbg !1540
}

declare void @_ZNKSt18basic_stringstreamIcSt11char_traitsIcESaIcEE3strEv(%"class.std::basic_string"* sret, %"class.std::basic_stringstream"*) #0

; Function Attrs: nounwind
declare void @_ZNSt18basic_stringstreamIcSt11char_traitsIcESaIcEED1Ev(%"class.std::basic_stringstream"*) #1

; Function Attrs: nounwind uwtable
define linkonce_odr void @_ZNSt6vectorISsSaISsEED2Ev(%"class.std::vector"* %this) unnamed_addr #5 align 2 {
  %1 = alloca %"class.std::vector"*, align 8
  %2 = alloca i8*
  %3 = alloca i32
  store %"class.std::vector"* %this, %"class.std::vector"** %1, align 8
  %4 = load %"class.std::vector"** %1
  %5 = bitcast %"class.std::vector"* %4 to %"struct.std::_Vector_base"*, !dbg !1542
  %6 = getelementptr inbounds %"struct.std::_Vector_base"* %5, i32 0, i32 0, !dbg !1542
  %7 = getelementptr inbounds %"struct.std::_Vector_base<std::basic_string<char>, std::allocator<std::basic_string<char> > >::_Vector_impl"* %6, i32 0, i32 0, !dbg !1542
  %8 = load %"class.std::basic_string"** %7, align 8, !dbg !1542
  %9 = bitcast %"class.std::vector"* %4 to %"struct.std::_Vector_base"*, !dbg !1542
  %10 = getelementptr inbounds %"struct.std::_Vector_base"* %9, i32 0, i32 0, !dbg !1542
  %11 = getelementptr inbounds %"struct.std::_Vector_base<std::basic_string<char>, std::allocator<std::basic_string<char> > >::_Vector_impl"* %10, i32 0, i32 1, !dbg !1542
  %12 = load %"class.std::basic_string"** %11, align 8, !dbg !1542
  %13 = bitcast %"class.std::vector"* %4 to %"struct.std::_Vector_base"*, !dbg !1544
  %14 = call %"class.std::allocator"* @_ZNSt12_Vector_baseISsSaISsEE19_M_get_Tp_allocatorEv(%"struct.std::_Vector_base"* %13) #2, !dbg !1544
  invoke void @_ZSt8_DestroyIPSsSsEvT_S1_RSaIT0_E(%"class.std::basic_string"* %8, %"class.std::basic_string"* %12, %"class.std::allocator"* %14)
          to label %15 unwind label %17, !dbg !1542

; <label>:15                                      ; preds = %0
  %16 = bitcast %"class.std::vector"* %4 to %"struct.std::_Vector_base"*, !dbg !1544
  call void @_ZNSt12_Vector_baseISsSaISsEED2Ev(%"struct.std::_Vector_base"* %16) #2, !dbg !1544
  ret void, !dbg !1545

; <label>:17                                      ; preds = %0
  %18 = landingpad { i8*, i32 } personality i8* bitcast (i32 (...)* @__gxx_personality_v0 to i8*)
          catch i8* null, !dbg !1544
  %19 = extractvalue { i8*, i32 } %18, 0, !dbg !1544
  store i8* %19, i8** %2, !dbg !1544
  %20 = extractvalue { i8*, i32 } %18, 1, !dbg !1544
  store i32 %20, i32* %3, !dbg !1544
  %21 = bitcast %"class.std::vector"* %4 to %"struct.std::_Vector_base"*, !dbg !1545
  call void @_ZNSt12_Vector_baseISsSaISsEED2Ev(%"struct.std::_Vector_base"* %21) #2, !dbg !1545
  %22 = load i8** %2, !dbg !1545
  call void @__clang_call_terminate(i8* %22) #12, !dbg !1545
  unreachable, !dbg !1545
}

; Function Attrs: uwtable
define i32 @main() #3 {
  call void @klee.ctor_stub()
  %1 = alloca i32, align 4
  %l = alloca i16, align 2
  %s = alloca i16, align 2
  %b = alloca i16, align 2
  store i32 0, i32* %1
  %2 = bitcast i16* %l to i8*, !dbg !1546
  call void @klee_make_symbolic(i8* %2, i64 2, i8* getelementptr inbounds ([2 x i8]* @.str7, i32 0, i32 0)), !dbg !1546
  %3 = bitcast i16* %s to i8*, !dbg !1547
  call void @klee_make_symbolic(i8* %3, i64 2, i8* getelementptr inbounds ([2 x i8]* @.str8, i32 0, i32 0)), !dbg !1547
  %4 = bitcast i16* %b to i8*, !dbg !1548
  call void @klee_make_symbolic(i8* %4, i64 2, i8* getelementptr inbounds ([2 x i8]* @.str9, i32 0, i32 0)), !dbg !1548
  %5 = load i16* %l, align 2, !dbg !1549
  %6 = sext i16 %5 to i32, !dbg !1549
  %7 = load i16* %s, align 2, !dbg !1549
  %8 = sext i16 %7 to i32, !dbg !1549
  %9 = load i16* %b, align 2, !dbg !1549
  %10 = sext i16 %9 to i32, !dbg !1549
  call void @_Z10commissioniii(i32 %6, i32 %8, i32 %10), !dbg !1549
  ret i32 0, !dbg !1550
}

declare void @klee_make_symbolic(i8*, i64, i8*) #0

; Function Attrs: nounwind
declare void @_ZNSsC1EOSs(%"class.std::basic_string"*, %"class.std::basic_string"*) #1

; Function Attrs: nounwind uwtable
define linkonce_odr %"class.std::basic_string"* @_ZSt4moveIRSsEONSt16remove_referenceIT_E4typeEOS2_(%"class.std::basic_string"* %__t) #5 {
  %1 = alloca %"class.std::basic_string"*, align 8
  store %"class.std::basic_string"* %__t, %"class.std::basic_string"** %1, align 8
  %2 = load %"class.std::basic_string"** %1, align 8, !dbg !1551
  ret %"class.std::basic_string"* %2, !dbg !1551
}

declare %"class.std::basic_string"* @_ZNSs6insertEmPKc(%"class.std::basic_string"*, i64, i8*) #0

; Function Attrs: uwtable
define linkonce_odr void @_ZNSt6vectorISsSaISsEE12emplace_backIJSsEEEvDpOT_(%"class.std::vector"* %this, %"class.std::basic_string"* %__args) #3 align 2 {
  %1 = alloca %"class.std::vector"*, align 8
  %2 = alloca %"class.std::basic_string"*, align 8
  store %"class.std::vector"* %this, %"class.std::vector"** %1, align 8
  store %"class.std::basic_string"* %__args, %"class.std::basic_string"** %2, align 8
  %3 = load %"class.std::vector"** %1
  %4 = bitcast %"class.std::vector"* %3 to %"struct.std::_Vector_base"*, !dbg !1553
  %5 = getelementptr inbounds %"struct.std::_Vector_base"* %4, i32 0, i32 0, !dbg !1553
  %6 = getelementptr inbounds %"struct.std::_Vector_base<std::basic_string<char>, std::allocator<std::basic_string<char> > >::_Vector_impl"* %5, i32 0, i32 1, !dbg !1553
  %7 = load %"class.std::basic_string"** %6, align 8, !dbg !1553
  %8 = bitcast %"class.std::vector"* %3 to %"struct.std::_Vector_base"*, !dbg !1553
  %9 = getelementptr inbounds %"struct.std::_Vector_base"* %8, i32 0, i32 0, !dbg !1553
  %10 = getelementptr inbounds %"struct.std::_Vector_base<std::basic_string<char>, std::allocator<std::basic_string<char> > >::_Vector_impl"* %9, i32 0, i32 2, !dbg !1553
  %11 = load %"class.std::basic_string"** %10, align 8, !dbg !1553
  %12 = icmp ne %"class.std::basic_string"* %7, %11, !dbg !1553
  br i1 %12, label %13, label %28, !dbg !1553

; <label>:13                                      ; preds = %0
  %14 = bitcast %"class.std::vector"* %3 to %"struct.std::_Vector_base"*, !dbg !1557
  %15 = getelementptr inbounds %"struct.std::_Vector_base"* %14, i32 0, i32 0, !dbg !1557
  %16 = bitcast %"struct.std::_Vector_base<std::basic_string<char>, std::allocator<std::basic_string<char> > >::_Vector_impl"* %15 to %"class.std::allocator"*, !dbg !1557
  %17 = bitcast %"class.std::vector"* %3 to %"struct.std::_Vector_base"*, !dbg !1557
  %18 = getelementptr inbounds %"struct.std::_Vector_base"* %17, i32 0, i32 0, !dbg !1557
  %19 = getelementptr inbounds %"struct.std::_Vector_base<std::basic_string<char>, std::allocator<std::basic_string<char> > >::_Vector_impl"* %18, i32 0, i32 1, !dbg !1557
  %20 = load %"class.std::basic_string"** %19, align 8, !dbg !1557
  %21 = load %"class.std::basic_string"** %2, align 8, !dbg !1559
  %22 = call %"class.std::basic_string"* @_ZSt7forwardISsEOT_RNSt16remove_referenceIS0_E4typeE(%"class.std::basic_string"* %21) #2, !dbg !1559
  call void @_ZNSt16allocator_traitsISaISsEE9constructISsJSsEEEDTcl12_S_constructfp_fp0_spclsr3stdE7forwardIT0_Efp1_EEERS0_PT_DpOS3_(%"class.std::allocator"* %16, %"class.std::basic_string"* %20, %"class.std::basic_string"* %22), !dbg !1557
  %23 = bitcast %"class.std::vector"* %3 to %"struct.std::_Vector_base"*, !dbg !1560
  %24 = getelementptr inbounds %"struct.std::_Vector_base"* %23, i32 0, i32 0, !dbg !1560
  %25 = getelementptr inbounds %"struct.std::_Vector_base<std::basic_string<char>, std::allocator<std::basic_string<char> > >::_Vector_impl"* %24, i32 0, i32 1, !dbg !1560
  %26 = load %"class.std::basic_string"** %25, align 8, !dbg !1560
  %27 = getelementptr inbounds %"class.std::basic_string"* %26, i32 1, !dbg !1560
  store %"class.std::basic_string"* %27, %"class.std::basic_string"** %25, align 8, !dbg !1560
  br label %31, !dbg !1561

; <label>:28                                      ; preds = %0
  %29 = load %"class.std::basic_string"** %2, align 8, !dbg !1562
  %30 = call %"class.std::basic_string"* @_ZSt7forwardISsEOT_RNSt16remove_referenceIS0_E4typeE(%"class.std::basic_string"* %29) #2, !dbg !1562
  call void @_ZNSt6vectorISsSaISsEE19_M_emplace_back_auxIJSsEEEvDpOT_(%"class.std::vector"* %3, %"class.std::basic_string"* %30), !dbg !1562
  br label %31

; <label>:31                                      ; preds = %28, %13
  ret void, !dbg !1563
}

; Function Attrs: uwtable
define linkonce_odr void @_ZNSt16allocator_traitsISaISsEE9constructISsJSsEEEDTcl12_S_constructfp_fp0_spclsr3stdE7forwardIT0_Efp1_EEERS0_PT_DpOS3_(%"class.std::allocator"* %__a, %"class.std::basic_string"* %__p, %"class.std::basic_string"* %__args) #3 ali
  %1 = alloca %"class.std::allocator"*, align 8
  %2 = alloca %"class.std::basic_string"*, align 8
  %3 = alloca %"class.std::basic_string"*, align 8
  store %"class.std::allocator"* %__a, %"class.std::allocator"** %1, align 8
  store %"class.std::basic_string"* %__p, %"class.std::basic_string"** %2, align 8
  store %"class.std::basic_string"* %__args, %"class.std::basic_string"** %3, align 8
  %4 = load %"class.std::allocator"** %1, align 8, !dbg !1564
  %5 = load %"class.std::basic_string"** %2, align 8, !dbg !1564
  %6 = load %"class.std::basic_string"** %3, align 8, !dbg !1564
  %7 = call %"class.std::basic_string"* @_ZSt7forwardISsEOT_RNSt16remove_referenceIS0_E4typeE(%"class.std::basic_string"* %6) #2, !dbg !1564
  call void @_ZNSt16allocator_traitsISaISsEE12_S_constructISsJSsEEENSt9enable_ifIXsr18__construct_helperIT_DpT0_EE5valueEvE4typeERS0_PS4_DpOS5_(%"class.std::allocator"* %4, %"class.std::basic_string"* %5, %"class.std::basic_string"* %7), !dbg !1564
  ret void, !dbg !1564
}

; Function Attrs: nounwind uwtable
define linkonce_odr %"class.std::basic_string"* @_ZSt7forwardISsEOT_RNSt16remove_referenceIS0_E4typeE(%"class.std::basic_string"* %__t) #5 {
  %1 = alloca %"class.std::basic_string"*, align 8
  store %"class.std::basic_string"* %__t, %"class.std::basic_string"** %1, align 8
  %2 = load %"class.std::basic_string"** %1, align 8, !dbg !1566
  ret %"class.std::basic_string"* %2, !dbg !1566
}

; Function Attrs: uwtable
define linkonce_odr void @_ZNSt6vectorISsSaISsEE19_M_emplace_back_auxIJSsEEEvDpOT_(%"class.std::vector"* %this, %"class.std::basic_string"* %__args) #3 align 2 {
  %1 = alloca %"class.std::vector"*, align 8
  %2 = alloca %"class.std::basic_string"*, align 8
  %__len = alloca i64, align 8
  %__new_start = alloca %"class.std::basic_string"*, align 8
  %__new_finish = alloca %"class.std::basic_string"*, align 8
  %3 = alloca i8*
  %4 = alloca i32
  store %"class.std::vector"* %this, %"class.std::vector"** %1, align 8
  store %"class.std::basic_string"* %__args, %"class.std::basic_string"** %2, align 8
  %5 = load %"class.std::vector"** %1
  %6 = call i64 @_ZNKSt6vectorISsSaISsEE12_M_check_lenEmPKc(%"class.std::vector"* %5, i64 1, i8* getelementptr inbounds ([28 x i8]* @.str10, i32 0, i32 0)), !dbg !1568
  store i64 %6, i64* %__len, align 8, !dbg !1568
  %7 = bitcast %"class.std::vector"* %5 to %"struct.std::_Vector_base"*, !dbg !1569
  %8 = load i64* %__len, align 8, !dbg !1569
  %9 = call %"class.std::basic_string"* @_ZNSt12_Vector_baseISsSaISsEE11_M_allocateEm(%"struct.std::_Vector_base"* %7, i64 %8), !dbg !1569
  store %"class.std::basic_string"* %9, %"class.std::basic_string"** %__new_start, align 8, !dbg !1569
  %10 = load %"class.std::basic_string"** %__new_start, align 8, !dbg !1570
  store %"class.std::basic_string"* %10, %"class.std::basic_string"** %__new_finish, align 8, !dbg !1570
  %11 = bitcast %"class.std::vector"* %5 to %"struct.std::_Vector_base"*, !dbg !1571
  %12 = getelementptr inbounds %"struct.std::_Vector_base"* %11, i32 0, i32 0, !dbg !1571
  %13 = bitcast %"struct.std::_Vector_base<std::basic_string<char>, std::allocator<std::basic_string<char> > >::_Vector_impl"* %12 to %"class.std::allocator"*, !dbg !1571
  %14 = load %"class.std::basic_string"** %__new_start, align 8, !dbg !1571
  %15 = call i64 @_ZNKSt6vectorISsSaISsEE4sizeEv(%"class.std::vector"* %5) #2, !dbg !1571
  %16 = getelementptr inbounds %"class.std::basic_string"* %14, i64 %15, !dbg !1571
  %17 = load %"class.std::basic_string"** %2, align 8, !dbg !1573
  %18 = call %"class.std::basic_string"* @_ZSt7forwardISsEOT_RNSt16remove_referenceIS0_E4typeE(%"class.std::basic_string"* %17) #2, !dbg !1573
  invoke void @_ZNSt16allocator_traitsISaISsEE9constructISsJSsEEEDTcl12_S_constructfp_fp0_spclsr3stdE7forwardIT0_Efp1_EEERS0_PT_DpOS3_(%"class.std::allocator"* %13, %"class.std::basic_string"* %16, %"class.std::basic_string"* %18)
          to label %19 unwind label %76, !dbg !1571

; <label>:19                                      ; preds = %0
  store %"class.std::basic_string"* null, %"class.std::basic_string"** %__new_finish, align 8, !dbg !1574
  %20 = bitcast %"class.std::vector"* %5 to %"struct.std::_Vector_base"*, !dbg !1575
  %21 = getelementptr inbounds %"struct.std::_Vector_base"* %20, i32 0, i32 0, !dbg !1575
  %22 = getelementptr inbounds %"struct.std::_Vector_base<std::basic_string<char>, std::allocator<std::basic_string<char> > >::_Vector_impl"* %21, i32 0, i32 0, !dbg !1575
  %23 = load %"class.std::basic_string"** %22, align 8, !dbg !1575
  %24 = bitcast %"class.std::vector"* %5 to %"struct.std::_Vector_base"*, !dbg !1575
  %25 = getelementptr inbounds %"struct.std::_Vector_base"* %24, i32 0, i32 0, !dbg !1575
  %26 = getelementptr inbounds %"struct.std::_Vector_base<std::basic_string<char>, std::allocator<std::basic_string<char> > >::_Vector_impl"* %25, i32 0, i32 1, !dbg !1575
  %27 = load %"class.std::basic_string"** %26, align 8, !dbg !1575
  %28 = load %"class.std::basic_string"** %__new_start, align 8, !dbg !1575
  %29 = bitcast %"class.std::vector"* %5 to %"struct.std::_Vector_base"*, !dbg !1576
  %30 = call %"class.std::allocator"* @_ZNSt12_Vector_baseISsSaISsEE19_M_get_Tp_allocatorEv(%"struct.std::_Vector_base"* %29) #2, !dbg !1576
  %31 = invoke %"class.std::basic_string"* @_ZSt34__uninitialized_move_if_noexcept_aIPSsS0_SaISsEET0_T_S3_S2_RT1_(%"class.std::basic_string"* %23, %"class.std::basic_string"* %27, %"class.std::basic_string"* %28, %"class.std::allocator"* %30)
          to label %32 unwind label %76, !dbg !1575

; <label>:32                                      ; preds = %19
  store %"class.std::basic_string"* %31, %"class.std::basic_string"** %__new_finish, align 8, !dbg !1575
  %33 = load %"class.std::basic_string"** %__new_finish, align 8, !dbg !1577
  %34 = getelementptr inbounds %"class.std::basic_string"* %33, i32 1, !dbg !1577
  store %"class.std::basic_string"* %34, %"class.std::basic_string"** %__new_finish, align 8, !dbg !1577
  %35 = bitcast %"class.std::vector"* %5 to %"struct.std::_Vector_base"*, !dbg !1578
  %36 = getelementptr inbounds %"struct.std::_Vector_base"* %35, i32 0, i32 0, !dbg !1578
  %37 = getelementptr inbounds %"struct.std::_Vector_base<std::basic_string<char>, std::allocator<std::basic_string<char> > >::_Vector_impl"* %36, i32 0, i32 0, !dbg !1578
  %38 = load %"class.std::basic_string"** %37, align 8, !dbg !1578
  %39 = bitcast %"class.std::vector"* %5 to %"struct.std::_Vector_base"*, !dbg !1578
  %40 = getelementptr inbounds %"struct.std::_Vector_base"* %39, i32 0, i32 0, !dbg !1578
  %41 = getelementptr inbounds %"struct.std::_Vector_base<std::basic_string<char>, std::allocator<std::basic_string<char> > >::_Vector_impl"* %40, i32 0, i32 1, !dbg !1578
  %42 = load %"class.std::basic_string"** %41, align 8, !dbg !1578
  %43 = bitcast %"class.std::vector"* %5 to %"struct.std::_Vector_base"*, !dbg !1579
  %44 = call %"class.std::allocator"* @_ZNSt12_Vector_baseISsSaISsEE19_M_get_Tp_allocatorEv(%"struct.std::_Vector_base"* %43) #2, !dbg !1579
  call void @_ZSt8_DestroyIPSsSsEvT_S1_RSaIT0_E(%"class.std::basic_string"* %38, %"class.std::basic_string"* %42, %"class.std::allocator"* %44), !dbg !1580
  %45 = bitcast %"class.std::vector"* %5 to %"struct.std::_Vector_base"*, !dbg !1581
  %46 = bitcast %"class.std::vector"* %5 to %"struct.std::_Vector_base"*, !dbg !1581
  %47 = getelementptr inbounds %"struct.std::_Vector_base"* %46, i32 0, i32 0, !dbg !1581
  %48 = getelementptr inbounds %"struct.std::_Vector_base<std::basic_string<char>, std::allocator<std::basic_string<char> > >::_Vector_impl"* %47, i32 0, i32 0, !dbg !1581
  %49 = load %"class.std::basic_string"** %48, align 8, !dbg !1581
  %50 = bitcast %"class.std::vector"* %5 to %"struct.std::_Vector_base"*, !dbg !1581
  %51 = getelementptr inbounds %"struct.std::_Vector_base"* %50, i32 0, i32 0, !dbg !1581
  %52 = getelementptr inbounds %"struct.std::_Vector_base<std::basic_string<char>, std::allocator<std::basic_string<char> > >::_Vector_impl"* %51, i32 0, i32 2, !dbg !1581
  %53 = load %"class.std::basic_string"** %52, align 8, !dbg !1581
  %54 = bitcast %"class.std::vector"* %5 to %"struct.std::_Vector_base"*, !dbg !1581
  %55 = getelementptr inbounds %"struct.std::_Vector_base"* %54, i32 0, i32 0, !dbg !1581
  %56 = getelementptr inbounds %"struct.std::_Vector_base<std::basic_string<char>, std::allocator<std::basic_string<char> > >::_Vector_impl"* %55, i32 0, i32 0, !dbg !1581
  %57 = load %"class.std::basic_string"** %56, align 8, !dbg !1581
  %58 = ptrtoint %"class.std::basic_string"* %53 to i64, !dbg !1581
  %59 = ptrtoint %"class.std::basic_string"* %57 to i64, !dbg !1581
  %60 = sub i64 %58, %59, !dbg !1581
  %int_cast_to_i64 = bitcast i64 8 to i64
  call void @klee_div_zero_check(i64 %int_cast_to_i64), !dbg !1581
  %61 = sdiv exact i64 %60, 8, !dbg !1581
  call void @_ZNSt12_Vector_baseISsSaISsEE13_M_deallocateEPSsm(%"struct.std::_Vector_base"* %45, %"class.std::basic_string"* %49, i64 %61), !dbg !1581
  %62 = load %"class.std::basic_string"** %__new_start, align 8, !dbg !1582
  %63 = bitcast %"class.std::vector"* %5 to %"struct.std::_Vector_base"*, !dbg !1582
  %64 = getelementptr inbounds %"struct.std::_Vector_base"* %63, i32 0, i32 0, !dbg !1582
  %65 = getelementptr inbounds %"struct.std::_Vector_base<std::basic_string<char>, std::allocator<std::basic_string<char> > >::_Vector_impl"* %64, i32 0, i32 0, !dbg !1582
  store %"class.std::basic_string"* %62, %"class.std::basic_string"** %65, align 8, !dbg !1582
  %66 = load %"class.std::basic_string"** %__new_finish, align 8, !dbg !1583
  %67 = bitcast %"class.std::vector"* %5 to %"struct.std::_Vector_base"*, !dbg !1583
  %68 = getelementptr inbounds %"struct.std::_Vector_base"* %67, i32 0, i32 0, !dbg !1583
  %69 = getelementptr inbounds %"struct.std::_Vector_base<std::basic_string<char>, std::allocator<std::basic_string<char> > >::_Vector_impl"* %68, i32 0, i32 1, !dbg !1583
  store %"class.std::basic_string"* %66, %"class.std::basic_string"** %69, align 8, !dbg !1583
  %70 = load %"class.std::basic_string"** %__new_start, align 8, !dbg !1584
  %71 = load i64* %__len, align 8, !dbg !1584
  %72 = getelementptr inbounds %"class.std::basic_string"* %70, i64 %71, !dbg !1584
  %73 = bitcast %"class.std::vector"* %5 to %"struct.std::_Vector_base"*, !dbg !1584
  %74 = getelementptr inbounds %"struct.std::_Vector_base"* %73, i32 0, i32 0, !dbg !1584
  %75 = getelementptr inbounds %"struct.std::_Vector_base<std::basic_string<char>, std::allocator<std::basic_string<char> > >::_Vector_impl"* %74, i32 0, i32 2, !dbg !1584
  store %"class.std::basic_string"* %72, %"class.std::basic_string"** %75, align 8, !dbg !1584
  ret void, !dbg !1585

; <label>:76                                      ; preds = %19, %0
  %77 = landingpad { i8*, i32 } personality i8* bitcast (i32 (...)* @__gxx_personality_v0 to i8*)
          catch i8* null, !dbg !1586
  %78 = extractvalue { i8*, i32 } %77, 0, !dbg !1586
  store i8* %78, i8** %3, !dbg !1586
  %79 = extractvalue { i8*, i32 } %77, 1, !dbg !1586
  store i32 %79, i32* %4, !dbg !1586
  %80 = load i8** %3, !dbg !1587
  %81 = call i8* @__cxa_begin_catch(i8* %80) #2, !dbg !1587
  %82 = load %"class.std::basic_string"** %__new_finish, align 8, !dbg !1588
  %83 = icmp ne %"class.std::basic_string"* %82, null, !dbg !1588
  br i1 %83, label %95, label %84, !dbg !1588

; <label>:84                                      ; preds = %76
  %85 = bitcast %"class.std::vector"* %5 to %"struct.std::_Vector_base"*, !dbg !1591
  %86 = getelementptr inbounds %"struct.std::_Vector_base"* %85, i32 0, i32 0, !dbg !1591
  %87 = bitcast %"struct.std::_Vector_base<std::basic_string<char>, std::allocator<std::basic_string<char> > >::_Vector_impl"* %86 to %"class.std::allocator"*, !dbg !1591
  %88 = load %"class.std::basic_string"** %__new_start, align 8, !dbg !1591
  %89 = call i64 @_ZNKSt6vectorISsSaISsEE4sizeEv(%"class.std::vector"* %5) #2, !dbg !1591
  %90 = getelementptr inbounds %"class.std::basic_string"* %88, i64 %89, !dbg !1591
  invoke void @_ZNSt16allocator_traitsISaISsEE7destroyISsEEvRS0_PT_(%"class.std::allocator"* %87, %"class.std::basic_string"* %90)
          to label %100 unwind label %91, !dbg !1591

; <label>:91                                      ; preds = %104, %100, %95, %84
  %92 = landingpad { i8*, i32 } personality i8* bitcast (i32 (...)* @__gxx_personality_v0 to i8*)
          cleanup, !dbg !1592
  %93 = extractvalue { i8*, i32 } %92, 0, !dbg !1592
  store i8* %93, i8** %3, !dbg !1592
  %94 = extractvalue { i8*, i32 } %92, 1, !dbg !1592
  store i32 %94, i32* %4, !dbg !1592
  invoke void @__cxa_end_catch()
          to label %105 unwind label %110, !dbg !1585

; <label>:95                                      ; preds = %76
  %96 = load %"class.std::basic_string"** %__new_start, align 8, !dbg !1593
  %97 = load %"class.std::basic_string"** %__new_finish, align 8, !dbg !1593
  %98 = bitcast %"class.std::vector"* %5 to %"struct.std::_Vector_base"*, !dbg !1593
  %99 = call %"class.std::allocator"* @_ZNSt12_Vector_baseISsSaISsEE19_M_get_Tp_allocatorEv(%"struct.std::_Vector_base"* %98) #2, !dbg !1593
  invoke void @_ZSt8_DestroyIPSsSsEvT_S1_RSaIT0_E(%"class.std::basic_string"* %96, %"class.std::basic_string"* %97, %"class.std::allocator"* %99)
          to label %100 unwind label %91, !dbg !1594

; <label>:100                                     ; preds = %95, %84
  %101 = bitcast %"class.std::vector"* %5 to %"struct.std::_Vector_base"*, !dbg !1595
  %102 = load %"class.std::basic_string"** %__new_start, align 8, !dbg !1595
  %103 = load i64* %__len, align 8, !dbg !1595
  invoke void @_ZNSt12_Vector_baseISsSaISsEE13_M_deallocateEPSsm(%"struct.std::_Vector_base"* %101, %"class.std::basic_string"* %102, i64 %103)
          to label %104 unwind label %91, !dbg !1595

; <label>:104                                     ; preds = %100
  invoke void @__cxa_rethrow() #16
          to label %113 unwind label %91, !dbg !1596

; <label>:105                                     ; preds = %91
  %106 = load i8** %3, !dbg !1585
  %107 = load i32* %4, !dbg !1585
  %108 = insertvalue { i8*, i32 } undef, i8* %106, 0, !dbg !1585
  %109 = insertvalue { i8*, i32 } %108, i32 %107, 1, !dbg !1585
  resume { i8*, i32 } %109, !dbg !1585

; <label>:110                                     ; preds = %91
  %111 = landingpad { i8*, i32 } personality i8* bitcast (i32 (...)* @__gxx_personality_v0 to i8*)
          catch i8* null, !dbg !1585
  %112 = extractvalue { i8*, i32 } %111, 0, !dbg !1585
  call void @__clang_call_terminate(i8* %112) #12, !dbg !1585
  unreachable, !dbg !1585

; <label>:113                                     ; preds = %104
  unreachable
}

; Function Attrs: uwtable
define linkonce_odr i64 @_ZNKSt6vectorISsSaISsEE12_M_check_lenEmPKc(%"class.std::vector"* %this, i64 %__n, i8* %__s) #3 align 2 {
  %1 = alloca %"class.std::vector"*, align 8
  %2 = alloca i64, align 8
  %3 = alloca i8*, align 8
  %__len = alloca i64, align 8
  %4 = alloca i64, align 8
  store %"class.std::vector"* %this, %"class.std::vector"** %1, align 8
  store i64 %__n, i64* %2, align 8
  store i8* %__s, i8** %3, align 8
  %5 = load %"class.std::vector"** %1
  %6 = call i64 @_ZNKSt6vectorISsSaISsEE8max_sizeEv(%"class.std::vector"* %5) #2, !dbg !1597
  %7 = call i64 @_ZNKSt6vectorISsSaISsEE4sizeEv(%"class.std::vector"* %5) #2, !dbg !1597
  %8 = sub i64 %6, %7, !dbg !1597
  %9 = load i64* %2, align 8, !dbg !1597
  %10 = icmp ult i64 %8, %9, !dbg !1597
  br i1 %10, label %11, label %13, !dbg !1597

; <label>:11                                      ; preds = %0
  %12 = load i8** %3, align 8, !dbg !1600
  call void @_ZSt20__throw_length_errorPKc(i8* %12) #16, !dbg !1600
  unreachable, !dbg !1600

; <label>:13                                      ; preds = %0
  %14 = call i64 @_ZNKSt6vectorISsSaISsEE4sizeEv(%"class.std::vector"* %5) #2, !dbg !1601
  %15 = call i64 @_ZNKSt6vectorISsSaISsEE4sizeEv(%"class.std::vector"* %5) #2, !dbg !1601
  store i64 %15, i64* %4, !dbg !1601
  %16 = call i64* @_ZSt3maxImERKT_S2_S2_(i64* %4, i64* %2), !dbg !1602
  %17 = load i64* %16, !dbg !1602
  %18 = add i64 %14, %17, !dbg !1602
  store i64 %18, i64* %__len, align 8, !dbg !1602
  %19 = load i64* %__len, align 8, !dbg !1603
  %20 = call i64 @_ZNKSt6vectorISsSaISsEE4sizeEv(%"class.std::vector"* %5) #2, !dbg !1603
  %21 = icmp ult i64 %19, %20, !dbg !1603
  br i1 %21, label %26, label %22, !dbg !1603

; <label>:22                                      ; preds = %13
  %23 = load i64* %__len, align 8, !dbg !1603
  %24 = call i64 @_ZNKSt6vectorISsSaISsEE8max_sizeEv(%"class.std::vector"* %5) #2, !dbg !1603
  %25 = icmp ugt i64 %23, %24, !dbg !1603
  br i1 %25, label %26, label %28, !dbg !1603

; <label>:26                                      ; preds = %22, %13
  %27 = call i64 @_ZNKSt6vectorISsSaISsEE8max_sizeEv(%"class.std::vector"* %5) #2, !dbg !1603
  br label %30, !dbg !1603

; <label>:28                                      ; preds = %22
  %29 = load i64* %__len, align 8, !dbg !1603
  br label %30, !dbg !1603

; <label>:30                                      ; preds = %28, %26
  %31 = phi i64 [ %27, %26 ], [ %29, %28 ], !dbg !1603
  ret i64 %31, !dbg !1603
}

; Function Attrs: uwtable
define linkonce_odr %"class.std::basic_string"* @_ZNSt12_Vector_baseISsSaISsEE11_M_allocateEm(%"struct.std::_Vector_base"* %this, i64 %__n) #3 align 2 {
  %1 = alloca %"struct.std::_Vector_base"*, align 8
  %2 = alloca i64, align 8
  store %"struct.std::_Vector_base"* %this, %"struct.std::_Vector_base"** %1, align 8
  store i64 %__n, i64* %2, align 8
  %3 = load %"struct.std::_Vector_base"** %1
  %4 = load i64* %2, align 8, !dbg !1604
  %5 = icmp ne i64 %4, 0, !dbg !1604
  br i1 %5, label %6, label %11, !dbg !1604

; <label>:6                                       ; preds = %0
  %7 = getelementptr inbounds %"struct.std::_Vector_base"* %3, i32 0, i32 0, !dbg !1604
  %8 = bitcast %"struct.std::_Vector_base<std::basic_string<char>, std::allocator<std::basic_string<char> > >::_Vector_impl"* %7 to %"class.__gnu_cxx::new_allocator"*, !dbg !1604
  %9 = load i64* %2, align 8, !dbg !1604
  %10 = call %"class.std::basic_string"* @_ZN9__gnu_cxx13new_allocatorISsE8allocateEmPKv(%"class.__gnu_cxx::new_allocator"* %8, i64 %9, i8* null), !dbg !1604
  br label %11, !dbg !1604

; <label>:11                                      ; preds = %0, %6
  %12 = phi %"class.std::basic_string"* [ %10, %6 ], [ null, %0 ], !dbg !1604
  ret %"class.std::basic_string"* %12, !dbg !1604
}

; Function Attrs: inlinehint uwtable
define linkonce_odr %"class.std::basic_string"* @_ZSt34__uninitialized_move_if_noexcept_aIPSsS0_SaISsEET0_T_S3_S2_RT1_(%"class.std::basic_string"* %__first, %"class.std::basic_string"* %__last, %"class.std::basic_string"* %__result, %"class.std::allocato
  %1 = alloca %"class.std::basic_string"*, align 8
  %2 = alloca %"class.std::basic_string"*, align 8
  %3 = alloca %"class.std::basic_string"*, align 8
  %4 = alloca %"class.std::allocator"*, align 8
  %5 = alloca %"class.std::move_iterator", align 8
  %6 = alloca %"class.std::move_iterator", align 8
  store %"class.std::basic_string"* %__first, %"class.std::basic_string"** %1, align 8
  store %"class.std::basic_string"* %__last, %"class.std::basic_string"** %2, align 8
  store %"class.std::basic_string"* %__result, %"class.std::basic_string"** %3, align 8
  store %"class.std::allocator"* %__alloc, %"class.std::allocator"** %4, align 8
  %7 = load %"class.std::basic_string"** %1, align 8, !dbg !1606
  %8 = call %"class.std::basic_string"* @_ZSt32__make_move_if_noexcept_iteratorIPSsSt13move_iteratorIS0_EET0_T_(%"class.std::basic_string"* %7), !dbg !1606
  %9 = getelementptr %"class.std::move_iterator"* %5, i32 0, i32 0, !dbg !1606
  store %"class.std::basic_string"* %8, %"class.std::basic_string"** %9, !dbg !1606
  %10 = load %"class.std::basic_string"** %2, align 8, !dbg !1608
  %11 = call %"class.std::basic_string"* @_ZSt32__make_move_if_noexcept_iteratorIPSsSt13move_iteratorIS0_EET0_T_(%"class.std::basic_string"* %10), !dbg !1608
  %12 = getelementptr %"class.std::move_iterator"* %6, i32 0, i32 0, !dbg !1608
  store %"class.std::basic_string"* %11, %"class.std::basic_string"** %12, !dbg !1608
  %13 = load %"class.std::basic_string"** %3, align 8, !dbg !1609
  %14 = load %"class.std::allocator"** %4, align 8, !dbg !1609
  %15 = getelementptr %"class.std::move_iterator"* %5, i32 0, i32 0, !dbg !1609
  %16 = load %"class.std::basic_string"** %15, !dbg !1609
  %17 = getelementptr %"class.std::move_iterator"* %6, i32 0, i32 0, !dbg !1609
  %18 = load %"class.std::basic_string"** %17, !dbg !1609
  %19 = call %"class.std::basic_string"* @_ZSt22__uninitialized_copy_aISt13move_iteratorIPSsES1_SsET0_T_S4_S3_RSaIT1_E(%"class.std::basic_string"* %16, %"class.std::basic_string"* %18, %"class.std::basic_string"* %13, %"class.std::allocator"* %14), !dbg 
  ret %"class.std::basic_string"* %19, !dbg !1609
}

; Function Attrs: nounwind uwtable
define linkonce_odr %"class.std::allocator"* @_ZNSt12_Vector_baseISsSaISsEE19_M_get_Tp_allocatorEv(%"struct.std::_Vector_base"* %this) #5 align 2 {
  %1 = alloca %"struct.std::_Vector_base"*, align 8
  store %"struct.std::_Vector_base"* %this, %"struct.std::_Vector_base"** %1, align 8
  %2 = load %"struct.std::_Vector_base"** %1
  %3 = getelementptr inbounds %"struct.std::_Vector_base"* %2, i32 0, i32 0, !dbg !1610
  %4 = bitcast %"struct.std::_Vector_base<std::basic_string<char>, std::allocator<std::basic_string<char> > >::_Vector_impl"* %3 to %"class.std::allocator"*, !dbg !1610
  ret %"class.std::allocator"* %4, !dbg !1610
}

declare i8* @__cxa_begin_catch(i8*)

; Function Attrs: uwtable
define linkonce_odr void @_ZNSt16allocator_traitsISaISsEE7destroyISsEEvRS0_PT_(%"class.std::allocator"* %__a, %"class.std::basic_string"* %__p) #3 align 2 {
  %1 = alloca %"class.std::allocator"*, align 8
  %2 = alloca %"class.std::basic_string"*, align 8
  store %"class.std::allocator"* %__a, %"class.std::allocator"** %1, align 8
  store %"class.std::basic_string"* %__p, %"class.std::basic_string"** %2, align 8
  %3 = load %"class.std::allocator"** %1, align 8, !dbg !1612
  %4 = load %"class.std::basic_string"** %2, align 8, !dbg !1612
  call void @_ZNSt16allocator_traitsISaISsEE10_S_destroyISsEENSt9enable_ifIXsr16__destroy_helperIT_EE5valueEvE4typeERS0_PS4_(%"class.std::allocator"* %3, %"class.std::basic_string"* %4), !dbg !1612
  ret void, !dbg !1612
}

; Function Attrs: inlinehint uwtable
define linkonce_odr void @_ZSt8_DestroyIPSsSsEvT_S1_RSaIT0_E(%"class.std::basic_string"* %__first, %"class.std::basic_string"* %__last, %"class.std::allocator"*) #7 {
  %2 = alloca %"class.std::basic_string"*, align 8
  %3 = alloca %"class.std::basic_string"*, align 8
  %4 = alloca %"class.std::allocator"*, align 8
  store %"class.std::basic_string"* %__first, %"class.std::basic_string"** %2, align 8
  store %"class.std::basic_string"* %__last, %"class.std::basic_string"** %3, align 8
  store %"class.std::allocator"* %0, %"class.std::allocator"** %4, align 8
  %5 = load %"class.std::basic_string"** %2, align 8, !dbg !1614
  %6 = load %"class.std::basic_string"** %3, align 8, !dbg !1614
  call void @_ZSt8_DestroyIPSsEvT_S1_(%"class.std::basic_string"* %5, %"class.std::basic_string"* %6), !dbg !1614
  ret void, !dbg !1616
}

; Function Attrs: uwtable
define linkonce_odr void @_ZNSt12_Vector_baseISsSaISsEE13_M_deallocateEPSsm(%"struct.std::_Vector_base"* %this, %"class.std::basic_string"* %__p, i64 %__n) #3 align 2 {
  %1 = alloca %"struct.std::_Vector_base"*, align 8
  %2 = alloca %"class.std::basic_string"*, align 8
  %3 = alloca i64, align 8
  store %"struct.std::_Vector_base"* %this, %"struct.std::_Vector_base"** %1, align 8
  store %"class.std::basic_string"* %__p, %"class.std::basic_string"** %2, align 8
  store i64 %__n, i64* %3, align 8
  %4 = load %"struct.std::_Vector_base"** %1
  %5 = load %"class.std::basic_string"** %2, align 8, !dbg !1617
  %6 = icmp ne %"class.std::basic_string"* %5, null, !dbg !1617
  br i1 %6, label %7, label %12, !dbg !1617

; <label>:7                                       ; preds = %0
  %8 = getelementptr inbounds %"struct.std::_Vector_base"* %4, i32 0, i32 0, !dbg !1620
  %9 = bitcast %"struct.std::_Vector_base<std::basic_string<char>, std::allocator<std::basic_string<char> > >::_Vector_impl"* %8 to %"class.__gnu_cxx::new_allocator"*, !dbg !1620
  %10 = load %"class.std::basic_string"** %2, align 8, !dbg !1620
  %11 = load i64* %3, align 8, !dbg !1620
  call void @_ZN9__gnu_cxx13new_allocatorISsE10deallocateEPSsm(%"class.__gnu_cxx::new_allocator"* %9, %"class.std::basic_string"* %10, i64 %11), !dbg !1620
  br label %12, !dbg !1620

; <label>:12                                      ; preds = %7, %0
  ret void, !dbg !1621
}

declare void @__cxa_rethrow()

declare void @__cxa_end_catch()

; Function Attrs: noinline noreturn nounwind
define linkonce_odr hidden void @__clang_call_terminate(i8*) #8 {
  %2 = call i8* @__cxa_begin_catch(i8* %0) #2
  call void @_ZSt9terminatev() #12
  unreachable
}

declare void @_ZSt9terminatev()

; Function Attrs: nounwind uwtable
define linkonce_odr void @_ZN9__gnu_cxx13new_allocatorISsE10deallocateEPSsm(%"class.__gnu_cxx::new_allocator"* %this, %"class.std::basic_string"* %__p, i64) #5 align 2 {
  %2 = alloca %"class.__gnu_cxx::new_allocator"*, align 8
  %3 = alloca %"class.std::basic_string"*, align 8
  %4 = alloca i64, align 8
  store %"class.__gnu_cxx::new_allocator"* %this, %"class.__gnu_cxx::new_allocator"** %2, align 8
  store %"class.std::basic_string"* %__p, %"class.std::basic_string"** %3, align 8
  store i64 %0, i64* %4, align 8
  %5 = load %"class.__gnu_cxx::new_allocator"** %2
  %6 = load %"class.std::basic_string"** %3, align 8, !dbg !1622
  %7 = bitcast %"class.std::basic_string"* %6 to i8*, !dbg !1622
  call void @_ZdlPv(i8* %7) #2, !dbg !1622
  ret void, !dbg !1622
}

; Function Attrs: nobuiltin nounwind
declare void @_ZdlPv(i8*) #9

; Function Attrs: inlinehint uwtable
define linkonce_odr void @_ZSt8_DestroyIPSsEvT_S1_(%"class.std::basic_string"* %__first, %"class.std::basic_string"* %__last) #7 {
  %1 = alloca %"class.std::basic_string"*, align 8
  %2 = alloca %"class.std::basic_string"*, align 8
  store %"class.std::basic_string"* %__first, %"class.std::basic_string"** %1, align 8
  store %"class.std::basic_string"* %__last, %"class.std::basic_string"** %2, align 8
  %3 = load %"class.std::basic_string"** %1, align 8, !dbg !1624
  %4 = load %"class.std::basic_string"** %2, align 8, !dbg !1624
  call void @_ZNSt12_Destroy_auxILb0EE9__destroyIPSsEEvT_S3_(%"class.std::basic_string"* %3, %"class.std::basic_string"* %4), !dbg !1624
  ret void, !dbg !1625
}

; Function Attrs: uwtable
define linkonce_odr void @_ZNSt12_Destroy_auxILb0EE9__destroyIPSsEEvT_S3_(%"class.std::basic_string"* %__first, %"class.std::basic_string"* %__last) #3 align 2 {
  %1 = alloca %"class.std::basic_string"*, align 8
  %2 = alloca %"class.std::basic_string"*, align 8
  store %"class.std::basic_string"* %__first, %"class.std::basic_string"** %1, align 8
  store %"class.std::basic_string"* %__last, %"class.std::basic_string"** %2, align 8
  br label %3, !dbg !1626

; <label>:3                                       ; preds = %7, %0
  %4 = load %"class.std::basic_string"** %1, align 8, !dbg !1626
  %5 = load %"class.std::basic_string"** %2, align 8, !dbg !1626
  %6 = icmp ne %"class.std::basic_string"* %4, %5, !dbg !1626
  br i1 %6, label %7, label %12, !dbg !1626

; <label>:7                                       ; preds = %3
  %8 = load %"class.std::basic_string"** %1, align 8, !dbg !1628
  %9 = call %"class.std::basic_string"* @_ZSt11__addressofISsEPT_RS0_(%"class.std::basic_string"* %8) #2, !dbg !1628
  call void @_ZSt8_DestroyISsEvPT_(%"class.std::basic_string"* %9), !dbg !1629
  %10 = load %"class.std::basic_string"** %1, align 8, !dbg !1626
  %11 = getelementptr inbounds %"class.std::basic_string"* %10, i32 1, !dbg !1626
  store %"class.std::basic_string"* %11, %"class.std::basic_string"** %1, align 8, !dbg !1626
  br label %3, !dbg !1626

; <label>:12                                      ; preds = %3
  ret void, !dbg !1630
}

; Function Attrs: inlinehint nounwind uwtable
define linkonce_odr void @_ZSt8_DestroyISsEvPT_(%"class.std::basic_string"* %__pointer) #6 {
  %1 = alloca %"class.std::basic_string"*, align 8
  store %"class.std::basic_string"* %__pointer, %"class.std::basic_string"** %1, align 8
  %2 = load %"class.std::basic_string"** %1, align 8, !dbg !1631
  call void @_ZNSsD1Ev(%"class.std::basic_string"* %2) #2, !dbg !1631
  ret void, !dbg !1631
}

; Function Attrs: inlinehint nounwind uwtable
define linkonce_odr %"class.std::basic_string"* @_ZSt11__addressofISsEPT_RS0_(%"class.std::basic_string"* %__r) #6 {
  %1 = alloca %"class.std::basic_string"*, align 8
  store %"class.std::basic_string"* %__r, %"class.std::basic_string"** %1, align 8
  %2 = load %"class.std::basic_string"** %1, align 8, !dbg !1633
  %3 = bitcast %"class.std::basic_string"* %2 to i8*, !dbg !1633
  %4 = bitcast i8* %3 to %"class.std::basic_string"*, !dbg !1633
  ret %"class.std::basic_string"* %4, !dbg !1633
}

; Function Attrs: uwtable
define linkonce_odr void @_ZNSt16allocator_traitsISaISsEE10_S_destroyISsEENSt9enable_ifIXsr16__destroy_helperIT_EE5valueEvE4typeERS0_PS4_(%"class.std::allocator"* %__a, %"class.std::basic_string"* %__p) #3 align 2 {
  %1 = alloca %"class.std::allocator"*, align 8
  %2 = alloca %"class.std::basic_string"*, align 8
  store %"class.std::allocator"* %__a, %"class.std::allocator"** %1, align 8
  store %"class.std::basic_string"* %__p, %"class.std::basic_string"** %2, align 8
  %3 = load %"class.std::allocator"** %1, align 8, !dbg !1635
  %4 = bitcast %"class.std::allocator"* %3 to %"class.__gnu_cxx::new_allocator"*, !dbg !1635
  %5 = load %"class.std::basic_string"** %2, align 8, !dbg !1635
  call void @_ZN9__gnu_cxx13new_allocatorISsE7destroyISsEEvPT_(%"class.__gnu_cxx::new_allocator"* %4, %"class.std::basic_string"* %5), !dbg !1635
  ret void, !dbg !1635
}

; Function Attrs: nounwind uwtable
define linkonce_odr void @_ZN9__gnu_cxx13new_allocatorISsE7destroyISsEEvPT_(%"class.__gnu_cxx::new_allocator"* %this, %"class.std::basic_string"* %__p) #5 align 2 {
  %1 = alloca %"class.__gnu_cxx::new_allocator"*, align 8
  %2 = alloca %"class.std::basic_string"*, align 8
  store %"class.__gnu_cxx::new_allocator"* %this, %"class.__gnu_cxx::new_allocator"** %1, align 8
  store %"class.std::basic_string"* %__p, %"class.std::basic_string"** %2, align 8
  %3 = load %"class.__gnu_cxx::new_allocator"** %1
  %4 = load %"class.std::basic_string"** %2, align 8, !dbg !1636
  call void @_ZNSsD1Ev(%"class.std::basic_string"* %4) #2, !dbg !1636
  ret void, !dbg !1636
}

; Function Attrs: inlinehint uwtable
define linkonce_odr %"class.std::basic_string"* @_ZSt22__uninitialized_copy_aISt13move_iteratorIPSsES1_SsET0_T_S4_S3_RSaIT1_E(%"class.std::basic_string"* %__first.coerce, %"class.std::basic_string"* %__last.coerce, %"class.std::basic_string"* %__result, 
  %__first = alloca %"class.std::move_iterator", align 8
  %__last = alloca %"class.std::move_iterator", align 8
  %2 = alloca %"class.std::basic_string"*, align 8
  %3 = alloca %"class.std::allocator"*, align 8
  %4 = alloca %"class.std::move_iterator", align 8
  %5 = alloca %"class.std::move_iterator", align 8
  %6 = getelementptr %"class.std::move_iterator"* %__first, i32 0, i32 0
  store %"class.std::basic_string"* %__first.coerce, %"class.std::basic_string"** %6
  %7 = getelementptr %"class.std::move_iterator"* %__last, i32 0, i32 0
  store %"class.std::basic_string"* %__last.coerce, %"class.std::basic_string"** %7
  store %"class.std::basic_string"* %__result, %"class.std::basic_string"** %2, align 8
  store %"class.std::allocator"* %0, %"class.std::allocator"** %3, align 8
  %8 = bitcast %"class.std::move_iterator"* %4 to i8*, !dbg !1638
  %9 = bitcast %"class.std::move_iterator"* %__first to i8*, !dbg !1638
  %10 = call i8* @memcpy(i8* %8, i8* %9, i64 8)
  %11 = bitcast %"class.std::move_iterator"* %5 to i8*, !dbg !1638
  %12 = bitcast %"class.std::move_iterator"* %__last to i8*, !dbg !1638
  %13 = call i8* @memcpy(i8* %11, i8* %12, i64 8)
  %14 = load %"class.std::basic_string"** %2, align 8, !dbg !1638
  %15 = getelementptr %"class.std::move_iterator"* %4, i32 0, i32 0, !dbg !1638
  %16 = load %"class.std::basic_string"** %15, !dbg !1638
  %17 = getelementptr %"class.std::move_iterator"* %5, i32 0, i32 0, !dbg !1638
  %18 = load %"class.std::basic_string"** %17, !dbg !1638
  %19 = call %"class.std::basic_string"* @_ZSt18uninitialized_copyISt13move_iteratorIPSsES1_ET0_T_S4_S3_(%"class.std::basic_string"* %16, %"class.std::basic_string"* %18, %"class.std::basic_string"* %14), !dbg !1638
  ret %"class.std::basic_string"* %19, !dbg !1638
}

; Function Attrs: inlinehint uwtable
define linkonce_odr %"class.std::basic_string"* @_ZSt32__make_move_if_noexcept_iteratorIPSsSt13move_iteratorIS0_EET0_T_(%"class.std::basic_string"* %__i) #7 {
  %1 = alloca %"class.std::move_iterator", align 8
  %2 = alloca %"class.std::basic_string"*, align 8
  store %"class.std::basic_string"* %__i, %"class.std::basic_string"** %2, align 8
  %3 = load %"class.std::basic_string"** %2, align 8, !dbg !1640
  call void @_ZNSt13move_iteratorIPSsEC2ES0_(%"class.std::move_iterator"* %1, %"class.std::basic_string"* %3), !dbg !1640
  %4 = getelementptr %"class.std::move_iterator"* %1, i32 0, i32 0, !dbg !1640
  %5 = load %"class.std::basic_string"** %4, !dbg !1640
  ret %"class.std::basic_string"* %5, !dbg !1640
}

; Function Attrs: nounwind uwtable
define linkonce_odr void @_ZNSt13move_iteratorIPSsEC2ES0_(%"class.std::move_iterator"* %this, %"class.std::basic_string"* %__i) unnamed_addr #5 align 2 {
  %1 = alloca %"class.std::move_iterator"*, align 8
  %2 = alloca %"class.std::basic_string"*, align 8
  store %"class.std::move_iterator"* %this, %"class.std::move_iterator"** %1, align 8
  store %"class.std::basic_string"* %__i, %"class.std::basic_string"** %2, align 8
  %3 = load %"class.std::move_iterator"** %1
  %4 = getelementptr inbounds %"class.std::move_iterator"* %3, i32 0, i32 0, !dbg !1642
  %5 = load %"class.std::basic_string"** %2, align 8, !dbg !1642
  store %"class.std::basic_string"* %5, %"class.std::basic_string"** %4, align 8, !dbg !1642
  ret void, !dbg !1642
}

; Function Attrs: inlinehint uwtable
define linkonce_odr %"class.std::basic_string"* @_ZSt18uninitialized_copyISt13move_iteratorIPSsES1_ET0_T_S4_S3_(%"class.std::basic_string"* %__first.coerce, %"class.std::basic_string"* %__last.coerce, %"class.std::basic_string"* %__result) #7 {
  %__first = alloca %"class.std::move_iterator", align 8
  %__last = alloca %"class.std::move_iterator", align 8
  %1 = alloca %"class.std::basic_string"*, align 8
  %2 = alloca %"class.std::move_iterator", align 8
  %3 = alloca %"class.std::move_iterator", align 8
  %4 = getelementptr %"class.std::move_iterator"* %__first, i32 0, i32 0
  store %"class.std::basic_string"* %__first.coerce, %"class.std::basic_string"** %4
  %5 = getelementptr %"class.std::move_iterator"* %__last, i32 0, i32 0
  store %"class.std::basic_string"* %__last.coerce, %"class.std::basic_string"** %5
  store %"class.std::basic_string"* %__result, %"class.std::basic_string"** %1, align 8
  %6 = bitcast %"class.std::move_iterator"* %2 to i8*, !dbg !1643
  %7 = bitcast %"class.std::move_iterator"* %__first to i8*, !dbg !1643
  %8 = call i8* @memcpy(i8* %6, i8* %7, i64 8)
  %9 = bitcast %"class.std::move_iterator"* %3 to i8*, !dbg !1643
  %10 = bitcast %"class.std::move_iterator"* %__last to i8*, !dbg !1643
  %11 = call i8* @memcpy(i8* %9, i8* %10, i64 8)
  %12 = load %"class.std::basic_string"** %1, align 8, !dbg !1643
  %13 = getelementptr %"class.std::move_iterator"* %2, i32 0, i32 0, !dbg !1643
  %14 = load %"class.std::basic_string"** %13, !dbg !1643
  %15 = getelementptr %"class.std::move_iterator"* %3, i32 0, i32 0, !dbg !1643
  %16 = load %"class.std::basic_string"** %15, !dbg !1643
  %17 = call %"class.std::basic_string"* @_ZNSt20__uninitialized_copyILb0EE13__uninit_copyISt13move_iteratorIPSsES3_EET0_T_S6_S5_(%"class.std::basic_string"* %14, %"class.std::basic_string"* %16, %"class.std::basic_string"* %12), !dbg !1643
  ret %"class.std::basic_string"* %17, !dbg !1643
}

; Function Attrs: nounwind
declare void @llvm.memcpy.p0i8.p0i8.i64(i8* nocapture, i8* nocapture readonly, i64, i32, i1) #2

; Function Attrs: uwtable
define linkonce_odr %"class.std::basic_string"* @_ZNSt20__uninitialized_copyILb0EE13__uninit_copyISt13move_iteratorIPSsES3_EET0_T_S6_S5_(%"class.std::basic_string"* %__first.coerce, %"class.std::basic_string"* %__last.coerce, %"class.std::basic_string"* 
  %__first = alloca %"class.std::move_iterator", align 8
  %__last = alloca %"class.std::move_iterator", align 8
  %1 = alloca %"class.std::basic_string"*, align 8
  %__cur = alloca %"class.std::basic_string"*, align 8
  %2 = alloca i8*
  %3 = alloca i32
  %4 = getelementptr %"class.std::move_iterator"* %__first, i32 0, i32 0
  store %"class.std::basic_string"* %__first.coerce, %"class.std::basic_string"** %4
  %5 = getelementptr %"class.std::move_iterator"* %__last, i32 0, i32 0
  store %"class.std::basic_string"* %__last.coerce, %"class.std::basic_string"** %5
  store %"class.std::basic_string"* %__result, %"class.std::basic_string"** %1, align 8
  %6 = load %"class.std::basic_string"** %1, align 8, !dbg !1644
  store %"class.std::basic_string"* %6, %"class.std::basic_string"** %__cur, align 8, !dbg !1644
  br label %7, !dbg !1645

; <label>:7                                       ; preds = %11, %0
  %8 = invoke zeroext i1 @_ZStneIPSsEbRKSt13move_iteratorIT_ES5_(%"class.std::move_iterator"* %__first, %"class.std::move_iterator"* %__last)
          to label %9 unwind label %17, !dbg !1645

; <label>:9                                       ; preds = %7
  %10 = load %"class.std::basic_string"** %__cur, align 8, !dbg !1648
  br i1 %8, label %11, label %26, !dbg !1645

; <label>:11                                      ; preds = %9
  %12 = call %"class.std::basic_string"* @_ZSt11__addressofISsEPT_RS0_(%"class.std::basic_string"* %10) #2, !dbg !1648
  %13 = call %"class.std::basic_string"* @_ZNKSt13move_iteratorIPSsEdeEv(%"class.std::move_iterator"* %__first), !dbg !1649
  call void @_ZSt10_ConstructISsJSsEEvPT_DpOT0_(%"class.std::basic_string"* %12, %"class.std::basic_string"* %13), !dbg !1650
  %14 = call %"class.std::move_iterator"* @_ZNSt13move_iteratorIPSsEppEv(%"class.std::move_iterator"* %__first), !dbg !1645
  %15 = load %"class.std::basic_string"** %__cur, align 8, !dbg !1645
  %16 = getelementptr inbounds %"class.std::basic_string"* %15, i32 1, !dbg !1645
  store %"class.std::basic_string"* %16, %"class.std::basic_string"** %__cur, align 8, !dbg !1645
  br label %7, !dbg !1645

; <label>:17                                      ; preds = %7
  %18 = landingpad { i8*, i32 } personality i8* bitcast (i32 (...)* @__gxx_personality_v0 to i8*)
          catch i8* null, !dbg !1651
  %19 = extractvalue { i8*, i32 } %18, 0, !dbg !1651
  store i8* %19, i8** %2, !dbg !1651
  %20 = extractvalue { i8*, i32 } %18, 1, !dbg !1651
  store i32 %20, i32* %3, !dbg !1651
  %21 = load i8** %2, !dbg !1652
  %22 = call i8* @__cxa_begin_catch(i8* %21) #2, !dbg !1652
  %23 = load %"class.std::basic_string"** %1, align 8, !dbg !1653
  %24 = load %"class.std::basic_string"** %__cur, align 8, !dbg !1653
  invoke void @_ZSt8_DestroyIPSsEvT_S1_(%"class.std::basic_string"* %23, %"class.std::basic_string"* %24)
          to label %25 unwind label %27, !dbg !1653

; <label>:25                                      ; preds = %17
  invoke void @__cxa_rethrow() #16
          to label %39 unwind label %27, !dbg !1655

; <label>:26                                      ; preds = %9
  ret %"class.std::basic_string"* %10, !dbg !1656

; <label>:27                                      ; preds = %25, %17
  %28 = landingpad { i8*, i32 } personality i8* bitcast (i32 (...)* @__gxx_personality_v0 to i8*)
          cleanup, !dbg !1657
  %29 = extractvalue { i8*, i32 } %28, 0, !dbg !1657
  store i8* %29, i8** %2, !dbg !1657
  %30 = extractvalue { i8*, i32 } %28, 1, !dbg !1657
  store i32 %30, i32* %3, !dbg !1657
  invoke void @__cxa_end_catch()
          to label %31 unwind label %36, !dbg !1658

; <label>:31                                      ; preds = %27
  %32 = load i8** %2, !dbg !1658
  %33 = load i32* %3, !dbg !1658
  %34 = insertvalue { i8*, i32 } undef, i8* %32, 0, !dbg !1658
  %35 = insertvalue { i8*, i32 } %34, i32 %33, 1, !dbg !1658
  resume { i8*, i32 } %35, !dbg !1658

; <label>:36                                      ; preds = %27
  %37 = landingpad { i8*, i32 } personality i8* bitcast (i32 (...)* @__gxx_personality_v0 to i8*)
          catch i8* null, !dbg !1658
  %38 = extractvalue { i8*, i32 } %37, 0, !dbg !1658
  call void @__clang_call_terminate(i8* %38) #12, !dbg !1658
  unreachable, !dbg !1658

; <label>:39                                      ; preds = %25
  unreachable
}

; Function Attrs: inlinehint uwtable
define linkonce_odr zeroext i1 @_ZStneIPSsEbRKSt13move_iteratorIT_ES5_(%"class.std::move_iterator"* %__x, %"class.std::move_iterator"* %__y) #7 {
  %1 = alloca %"class.std::move_iterator"*, align 8
  %2 = alloca %"class.std::move_iterator"*, align 8
  store %"class.std::move_iterator"* %__x, %"class.std::move_iterator"** %1, align 8
  store %"class.std::move_iterator"* %__y, %"class.std::move_iterator"** %2, align 8
  %3 = load %"class.std::move_iterator"** %1, align 8, !dbg !1659
  %4 = load %"class.std::move_iterator"** %2, align 8, !dbg !1659
  %5 = call zeroext i1 @_ZSteqIPSsEbRKSt13move_iteratorIT_ES5_(%"class.std::move_iterator"* %3, %"class.std::move_iterator"* %4), !dbg !1659
  %6 = xor i1 %5, true, !dbg !1659
  ret i1 %6, !dbg !1659
}

; Function Attrs: inlinehint nounwind uwtable
define linkonce_odr void @_ZSt10_ConstructISsJSsEEvPT_DpOT0_(%"class.std::basic_string"* %__p, %"class.std::basic_string"* %__args) #6 {
  %1 = alloca %"class.std::basic_string"*, align 8
  %2 = alloca %"class.std::basic_string"*, align 8
  store %"class.std::basic_string"* %__p, %"class.std::basic_string"** %1, align 8
  store %"class.std::basic_string"* %__args, %"class.std::basic_string"** %2, align 8
  %3 = load %"class.std::basic_string"** %1, align 8, !dbg !1661
  %4 = bitcast %"class.std::basic_string"* %3 to i8*, !dbg !1661
  %5 = icmp eq i8* %4, null, !dbg !1661
  br i1 %5, label %10, label %6, !dbg !1661

; <label>:6                                       ; preds = %0
  %7 = bitcast i8* %4 to %"class.std::basic_string"*, !dbg !1661
  %8 = load %"class.std::basic_string"** %2, align 8, !dbg !1661
  %9 = call %"class.std::basic_string"* @_ZSt7forwardISsEOT_RNSt16remove_referenceIS0_E4typeE(%"class.std::basic_string"* %8) #2, !dbg !1661
  call void @_ZNSsC1EOSs(%"class.std::basic_string"* %7, %"class.std::basic_string"* %9) #2, !dbg !1661
  br label %10, !dbg !1661

; <label>:10                                      ; preds = %6, %0
  %11 = phi %"class.std::basic_string"* [ %7, %6 ], [ null, %0 ], !dbg !1661
  ret void, !dbg !1661
}

; Function Attrs: nounwind uwtable
define linkonce_odr %"class.std::basic_string"* @_ZNKSt13move_iteratorIPSsEdeEv(%"class.std::move_iterator"* %this) #5 align 2 {
  %1 = alloca %"class.std::move_iterator"*, align 8
  store %"class.std::move_iterator"* %this, %"class.std::move_iterator"** %1, align 8
  %2 = load %"class.std::move_iterator"** %1
  %3 = getelementptr inbounds %"class.std::move_iterator"* %2, i32 0, i32 0, !dbg !1663
  %4 = load %"class.std::basic_string"** %3, align 8, !dbg !1663
  %5 = call %"class.std::basic_string"* @_ZSt4moveIRSsEONSt16remove_referenceIT_E4typeEOS2_(%"class.std::basic_string"* %4) #2, !dbg !1663
  ret %"class.std::basic_string"* %5, !dbg !1663
}

; Function Attrs: nounwind uwtable
define linkonce_odr %"class.std::move_iterator"* @_ZNSt13move_iteratorIPSsEppEv(%"class.std::move_iterator"* %this) #5 align 2 {
  %1 = alloca %"class.std::move_iterator"*, align 8
  store %"class.std::move_iterator"* %this, %"class.std::move_iterator"** %1, align 8
  %2 = load %"class.std::move_iterator"** %1
  %3 = getelementptr inbounds %"class.std::move_iterator"* %2, i32 0, i32 0, !dbg !1664
  %4 = load %"class.std::basic_string"** %3, align 8, !dbg !1664
  %5 = getelementptr inbounds %"class.std::basic_string"* %4, i32 1, !dbg !1664
  store %"class.std::basic_string"* %5, %"class.std::basic_string"** %3, align 8, !dbg !1664
  ret %"class.std::move_iterator"* %2, !dbg !1666
}

; Function Attrs: inlinehint uwtable
define linkonce_odr zeroext i1 @_ZSteqIPSsEbRKSt13move_iteratorIT_ES5_(%"class.std::move_iterator"* %__x, %"class.std::move_iterator"* %__y) #7 {
  %1 = alloca %"class.std::move_iterator"*, align 8
  %2 = alloca %"class.std::move_iterator"*, align 8
  store %"class.std::move_iterator"* %__x, %"class.std::move_iterator"** %1, align 8
  store %"class.std::move_iterator"* %__y, %"class.std::move_iterator"** %2, align 8
  %3 = load %"class.std::move_iterator"** %1, align 8, !dbg !1667
  %4 = call %"class.std::basic_string"* @_ZNKSt13move_iteratorIPSsE4baseEv(%"class.std::move_iterator"* %3), !dbg !1667
  %5 = load %"class.std::move_iterator"** %2, align 8, !dbg !1667
  %6 = call %"class.std::basic_string"* @_ZNKSt13move_iteratorIPSsE4baseEv(%"class.std::move_iterator"* %5), !dbg !1667
  %7 = icmp eq %"class.std::basic_string"* %4, %6, !dbg !1667
  ret i1 %7, !dbg !1667
}

; Function Attrs: nounwind uwtable
define linkonce_odr %"class.std::basic_string"* @_ZNKSt13move_iteratorIPSsE4baseEv(%"class.std::move_iterator"* %this) #5 align 2 {
  %1 = alloca %"class.std::move_iterator"*, align 8
  store %"class.std::move_iterator"* %this, %"class.std::move_iterator"** %1, align 8
  %2 = load %"class.std::move_iterator"** %1
  %3 = getelementptr inbounds %"class.std::move_iterator"* %2, i32 0, i32 0, !dbg !1668
  %4 = load %"class.std::basic_string"** %3, align 8, !dbg !1668
  ret %"class.std::basic_string"* %4, !dbg !1668
}

; Function Attrs: uwtable
define linkonce_odr %"class.std::basic_string"* @_ZN9__gnu_cxx13new_allocatorISsE8allocateEmPKv(%"class.__gnu_cxx::new_allocator"* %this, i64 %__n, i8*) #3 align 2 {
  %2 = alloca %"class.__gnu_cxx::new_allocator"*, align 8
  %3 = alloca i64, align 8
  %4 = alloca i8*, align 8
  store %"class.__gnu_cxx::new_allocator"* %this, %"class.__gnu_cxx::new_allocator"** %2, align 8
  store i64 %__n, i64* %3, align 8
  store i8* %0, i8** %4, align 8
  %5 = load %"class.__gnu_cxx::new_allocator"** %2
  %6 = load i64* %3, align 8, !dbg !1669
  %7 = call i64 @_ZNK9__gnu_cxx13new_allocatorISsE8max_sizeEv(%"class.__gnu_cxx::new_allocator"* %5) #2, !dbg !1669
  %8 = icmp ugt i64 %6, %7, !dbg !1669
  br i1 %8, label %9, label %10, !dbg !1669

; <label>:9                                       ; preds = %1
  call void @_ZSt17__throw_bad_allocv() #16, !dbg !1672
  unreachable, !dbg !1672

; <label>:10                                      ; preds = %1
  %11 = load i64* %3, align 8, !dbg !1673
  %12 = mul i64 %11, 8, !dbg !1673
  %13 = call noalias i8* @_Znwm(i64 %12), !dbg !1673
  %14 = bitcast i8* %13 to %"class.std::basic_string"*, !dbg !1673
  ret %"class.std::basic_string"* %14, !dbg !1673
}

; Function Attrs: nounwind uwtable
define linkonce_odr i64 @_ZNK9__gnu_cxx13new_allocatorISsE8max_sizeEv(%"class.__gnu_cxx::new_allocator"* %this) #5 align 2 {
  %1 = alloca %"class.__gnu_cxx::new_allocator"*, align 8
  store %"class.__gnu_cxx::new_allocator"* %this, %"class.__gnu_cxx::new_allocator"** %1, align 8
  %2 = load %"class.__gnu_cxx::new_allocator"** %1
  ret i64 2305843009213693951, !dbg !1674
}

; Function Attrs: noreturn
declare void @_ZSt17__throw_bad_allocv() #10

; Function Attrs: nobuiltin
declare noalias i8* @_Znwm(i64) #11

; Function Attrs: nounwind uwtable
define linkonce_odr i64 @_ZNKSt6vectorISsSaISsEE8max_sizeEv(%"class.std::vector"* %this) #5 align 2 {
  %1 = alloca %"class.std::vector"*, align 8
  store %"class.std::vector"* %this, %"class.std::vector"** %1, align 8
  %2 = load %"class.std::vector"** %1
  %3 = bitcast %"class.std::vector"* %2 to %"struct.std::_Vector_base"*, !dbg !1675
  %4 = call %"class.std::allocator"* @_ZNKSt12_Vector_baseISsSaISsEE19_M_get_Tp_allocatorEv(%"struct.std::_Vector_base"* %3) #2, !dbg !1675
  %5 = invoke i64 @_ZNSt16allocator_traitsISaISsEE8max_sizeERKS0_(%"class.std::allocator"* %4)
          to label %6 unwind label %7, !dbg !1675

; <label>:6                                       ; preds = %0
  ret i64 %5, !dbg !1675

; <label>:7                                       ; preds = %0
  %8 = landingpad { i8*, i32 } personality i8* bitcast (i32 (...)* @__gxx_personality_v0 to i8*)
          catch i8* null, !dbg !1675
  %9 = extractvalue { i8*, i32 } %8, 0, !dbg !1675
  call void @__clang_call_terminate(i8* %9) #12, !dbg !1675
  unreachable, !dbg !1675
}

; Function Attrs: noreturn
declare void @_ZSt20__throw_length_errorPKc(i8*) #10

; Function Attrs: inlinehint nounwind uwtable
define linkonce_odr i64* @_ZSt3maxImERKT_S2_S2_(i64* %__a, i64* %__b) #6 {
  %1 = alloca i64*, align 8
  %2 = alloca i64*, align 8
  %3 = alloca i64*, align 8
  store i64* %__a, i64** %2, align 8
  store i64* %__b, i64** %3, align 8
  %4 = load i64** %2, align 8, !dbg !1677
  %5 = load i64* %4, align 8, !dbg !1677
  %6 = load i64** %3, align 8, !dbg !1677
  %7 = load i64* %6, align 8, !dbg !1677
  %8 = icmp ult i64 %5, %7, !dbg !1677
  br i1 %8, label %9, label %11, !dbg !1677

; <label>:9                                       ; preds = %0
  %10 = load i64** %3, align 8, !dbg !1680
  store i64* %10, i64** %1, !dbg !1680
  br label %13, !dbg !1680

; <label>:11                                      ; preds = %0
  %12 = load i64** %2, align 8, !dbg !1681
  store i64* %12, i64** %1, !dbg !1681
  br label %13, !dbg !1681

; <label>:13                                      ; preds = %11, %9
  %14 = load i64** %1, !dbg !1682
  ret i64* %14, !dbg !1682
}

; Function Attrs: uwtable
define linkonce_odr i64 @_ZNSt16allocator_traitsISaISsEE8max_sizeERKS0_(%"class.std::allocator"* %__a) #3 align 2 {
  %1 = alloca %"class.std::allocator"*, align 8
  store %"class.std::allocator"* %__a, %"class.std::allocator"** %1, align 8
  %2 = load %"class.std::allocator"** %1, align 8, !dbg !1683
  %3 = call i64 @_ZNSt16allocator_traitsISaISsEE11_S_max_sizeIKS0_EENSt9enable_ifIXsr16__maxsize_helperIT_EE5valueEmE4typeERS5_(%"class.std::allocator"* %2), !dbg !1683
  ret i64 %3, !dbg !1683
}

; Function Attrs: nounwind uwtable
define linkonce_odr %"class.std::allocator"* @_ZNKSt12_Vector_baseISsSaISsEE19_M_get_Tp_allocatorEv(%"struct.std::_Vector_base"* %this) #5 align 2 {
  %1 = alloca %"struct.std::_Vector_base"*, align 8
  store %"struct.std::_Vector_base"* %this, %"struct.std::_Vector_base"** %1, align 8
  %2 = load %"struct.std::_Vector_base"** %1
  %3 = getelementptr inbounds %"struct.std::_Vector_base"* %2, i32 0, i32 0, !dbg !1685
  %4 = bitcast %"struct.std::_Vector_base<std::basic_string<char>, std::allocator<std::basic_string<char> > >::_Vector_impl"* %3 to %"class.std::allocator"*, !dbg !1685
  ret %"class.std::allocator"* %4, !dbg !1685
}

; Function Attrs: nounwind uwtable
define linkonce_odr i64 @_ZNSt16allocator_traitsISaISsEE11_S_max_sizeIKS0_EENSt9enable_ifIXsr16__maxsize_helperIT_EE5valueEmE4typeERS5_(%"class.std::allocator"* %__a) #5 align 2 {
  %1 = alloca %"class.std::allocator"*, align 8
  store %"class.std::allocator"* %__a, %"class.std::allocator"** %1, align 8
  %2 = load %"class.std::allocator"** %1, align 8, !dbg !1686
  %3 = bitcast %"class.std::allocator"* %2 to %"class.__gnu_cxx::new_allocator"*, !dbg !1686
  %4 = call i64 @_ZNK9__gnu_cxx13new_allocatorISsE8max_sizeEv(%"class.__gnu_cxx::new_allocator"* %3) #2, !dbg !1686
  ret i64 %4, !dbg !1686
}

; Function Attrs: uwtable
define linkonce_odr void @_ZNSt16allocator_traitsISaISsEE12_S_constructISsJSsEEENSt9enable_ifIXsr18__construct_helperIT_DpT0_EE5valueEvE4typeERS0_PS4_DpOS5_(%"class.std::allocator"* %__a, %"class.std::basic_string"* %__p, %"class.std::basic_string"* %__a
  %1 = alloca %"class.std::allocator"*, align 8
  %2 = alloca %"class.std::basic_string"*, align 8
  %3 = alloca %"class.std::basic_string"*, align 8
  store %"class.std::allocator"* %__a, %"class.std::allocator"** %1, align 8
  store %"class.std::basic_string"* %__p, %"class.std::basic_string"** %2, align 8
  store %"class.std::basic_string"* %__args, %"class.std::basic_string"** %3, align 8
  %4 = load %"class.std::allocator"** %1, align 8, !dbg !1687
  %5 = bitcast %"class.std::allocator"* %4 to %"class.__gnu_cxx::new_allocator"*, !dbg !1687
  %6 = load %"class.std::basic_string"** %2, align 8, !dbg !1687
  %7 = load %"class.std::basic_string"** %3, align 8, !dbg !1687
  %8 = call %"class.std::basic_string"* @_ZSt7forwardISsEOT_RNSt16remove_referenceIS0_E4typeE(%"class.std::basic_string"* %7) #2, !dbg !1687
  call void @_ZN9__gnu_cxx13new_allocatorISsE9constructISsJSsEEEvPT_DpOT0_(%"class.__gnu_cxx::new_allocator"* %5, %"class.std::basic_string"* %6, %"class.std::basic_string"* %8), !dbg !1687
  ret void, !dbg !1687
}

; Function Attrs: nounwind uwtable
define linkonce_odr void @_ZN9__gnu_cxx13new_allocatorISsE9constructISsJSsEEEvPT_DpOT0_(%"class.__gnu_cxx::new_allocator"* %this, %"class.std::basic_string"* %__p, %"class.std::basic_string"* %__args) #5 align 2 {
  %1 = alloca %"class.__gnu_cxx::new_allocator"*, align 8
  %2 = alloca %"class.std::basic_string"*, align 8
  %3 = alloca %"class.std::basic_string"*, align 8
  store %"class.__gnu_cxx::new_allocator"* %this, %"class.__gnu_cxx::new_allocator"** %1, align 8
  store %"class.std::basic_string"* %__p, %"class.std::basic_string"** %2, align 8
  store %"class.std::basic_string"* %__args, %"class.std::basic_string"** %3, align 8
  %4 = load %"class.__gnu_cxx::new_allocator"** %1
  %5 = load %"class.std::basic_string"** %2, align 8, !dbg !1688
  %6 = bitcast %"class.std::basic_string"* %5 to i8*, !dbg !1688
  %7 = icmp eq i8* %6, null, !dbg !1688
  br i1 %7, label %12, label %8, !dbg !1688

; <label>:8                                       ; preds = %0
  %9 = bitcast i8* %6 to %"class.std::basic_string"*, !dbg !1688
  %10 = load %"class.std::basic_string"** %3, align 8, !dbg !1688
  %11 = call %"class.std::basic_string"* @_ZSt7forwardISsEOT_RNSt16remove_referenceIS0_E4typeE(%"class.std::basic_string"* %10) #2, !dbg !1688
  call void @_ZNSsC1EOSs(%"class.std::basic_string"* %9, %"class.std::basic_string"* %11) #2, !dbg !1688
  br label %12, !dbg !1688

; <label>:12                                      ; preds = %8, %0
  %13 = phi %"class.std::basic_string"* [ %9, %8 ], [ null, %0 ], !dbg !1688
  ret void, !dbg !1688
}

; Function Attrs: uwtable
define linkonce_odr void @_ZNSt6vectorISsSaISsEE15_M_erase_at_endEPSs(%"class.std::vector"* %this, %"class.std::basic_string"* %__pos) #3 align 2 {
  %1 = alloca %"class.std::vector"*, align 8
  %2 = alloca %"class.std::basic_string"*, align 8
  store %"class.std::vector"* %this, %"class.std::vector"** %1, align 8
  store %"class.std::basic_string"* %__pos, %"class.std::basic_string"** %2, align 8
  %3 = load %"class.std::vector"** %1
  %4 = load %"class.std::basic_string"** %2, align 8, !dbg !1690
  %5 = bitcast %"class.std::vector"* %3 to %"struct.std::_Vector_base"*, !dbg !1690
  %6 = getelementptr inbounds %"struct.std::_Vector_base"* %5, i32 0, i32 0, !dbg !1690
  %7 = getelementptr inbounds %"struct.std::_Vector_base<std::basic_string<char>, std::allocator<std::basic_string<char> > >::_Vector_impl"* %6, i32 0, i32 1, !dbg !1690
  %8 = load %"class.std::basic_string"** %7, align 8, !dbg !1690
  %9 = bitcast %"class.std::vector"* %3 to %"struct.std::_Vector_base"*, !dbg !1690
  %10 = call %"class.std::allocator"* @_ZNSt12_Vector_baseISsSaISsEE19_M_get_Tp_allocatorEv(%"struct.std::_Vector_base"* %9) #2, !dbg !1690
  call void @_ZSt8_DestroyIPSsSsEvT_S1_RSaIT0_E(%"class.std::basic_string"* %4, %"class.std::basic_string"* %8, %"class.std::allocator"* %10), !dbg !1691
  %11 = load %"class.std::basic_string"** %2, align 8, !dbg !1692
  %12 = bitcast %"class.std::vector"* %3 to %"struct.std::_Vector_base"*, !dbg !1692
  %13 = getelementptr inbounds %"struct.std::_Vector_base"* %12, i32 0, i32 0, !dbg !1692
  %14 = getelementptr inbounds %"struct.std::_Vector_base<std::basic_string<char>, std::allocator<std::basic_string<char> > >::_Vector_impl"* %13, i32 0, i32 1, !dbg !1692
  store %"class.std::basic_string"* %11, %"class.std::basic_string"** %14, align 8, !dbg !1692
  ret void, !dbg !1693
}

; Function Attrs: nounwind uwtable
define linkonce_odr void @_ZNSt12_Vector_baseISsSaISsEED2Ev(%"struct.std::_Vector_base"* %this) unnamed_addr #5 align 2 {
  %1 = alloca %"struct.std::_Vector_base"*, align 8
  %2 = alloca i8*
  %3 = alloca i32
  store %"struct.std::_Vector_base"* %this, %"struct.std::_Vector_base"** %1, align 8
  %4 = load %"struct.std::_Vector_base"** %1
  %5 = getelementptr inbounds %"struct.std::_Vector_base"* %4, i32 0, i32 0, !dbg !1694
  %6 = getelementptr inbounds %"struct.std::_Vector_base<std::basic_string<char>, std::allocator<std::basic_string<char> > >::_Vector_impl"* %5, i32 0, i32 0, !dbg !1694
  %7 = load %"class.std::basic_string"** %6, align 8, !dbg !1694
  %8 = getelementptr inbounds %"struct.std::_Vector_base"* %4, i32 0, i32 0, !dbg !1694
  %9 = getelementptr inbounds %"struct.std::_Vector_base<std::basic_string<char>, std::allocator<std::basic_string<char> > >::_Vector_impl"* %8, i32 0, i32 2, !dbg !1694
  %10 = load %"class.std::basic_string"** %9, align 8, !dbg !1694
  %11 = getelementptr inbounds %"struct.std::_Vector_base"* %4, i32 0, i32 0, !dbg !1694
  %12 = getelementptr inbounds %"struct.std::_Vector_base<std::basic_string<char>, std::allocator<std::basic_string<char> > >::_Vector_impl"* %11, i32 0, i32 0, !dbg !1694
  %13 = load %"class.std::basic_string"** %12, align 8, !dbg !1694
  %14 = ptrtoint %"class.std::basic_string"* %10 to i64, !dbg !1694
  %15 = ptrtoint %"class.std::basic_string"* %13 to i64, !dbg !1694
  %16 = sub i64 %14, %15, !dbg !1694
  %int_cast_to_i64 = bitcast i64 8 to i64
  call void @klee_div_zero_check(i64 %int_cast_to_i64), !dbg !1694
  %17 = sdiv exact i64 %16, 8, !dbg !1694
  invoke void @_ZNSt12_Vector_baseISsSaISsEE13_M_deallocateEPSsm(%"struct.std::_Vector_base"* %4, %"class.std::basic_string"* %7, i64 %17)
          to label %18 unwind label %20, !dbg !1694

; <label>:18                                      ; preds = %0
  %19 = getelementptr inbounds %"struct.std::_Vector_base"* %4, i32 0, i32 0, !dbg !1696
  call void @_ZNSt12_Vector_baseISsSaISsEE12_Vector_implD2Ev(%"struct.std::_Vector_base<std::basic_string<char>, std::allocator<std::basic_string<char> > >::_Vector_impl"* %19) #2, !dbg !1696
  ret void, !dbg !1697

; <label>:20                                      ; preds = %0
  %21 = landingpad { i8*, i32 } personality i8* bitcast (i32 (...)* @__gxx_personality_v0 to i8*)
          cleanup
          filter [0 x i8*] zeroinitializer, !dbg !1696
  %22 = extractvalue { i8*, i32 } %21, 0, !dbg !1696
  store i8* %22, i8** %2, !dbg !1696
  %23 = extractvalue { i8*, i32 } %21, 1, !dbg !1696
  store i32 %23, i32* %3, !dbg !1696
  %24 = getelementptr inbounds %"struct.std::_Vector_base"* %4, i32 0, i32 0, !dbg !1697
  call void @_ZNSt12_Vector_baseISsSaISsEE12_Vector_implD2Ev(%"struct.std::_Vector_base<std::basic_string<char>, std::allocator<std::basic_string<char> > >::_Vector_impl"* %24) #2, !dbg !1697
  %25 = load i8** %2, !dbg !1697
  call void @__cxa_call_unexpected(i8* %25) #16, !dbg !1697
  unreachable, !dbg !1697
}

; Function Attrs: inlinehint nounwind uwtable
define linkonce_odr void @_ZNSt12_Vector_baseISsSaISsEE12_Vector_implD2Ev(%"struct.std::_Vector_base<std::basic_string<char>, std::allocator<std::basic_string<char> > >::_Vector_impl"* %this) unnamed_addr #6 align 2 {
  %1 = alloca %"struct.std::_Vector_base<std::basic_string<char>, std::allocator<std::basic_string<char> > >::_Vector_impl"*, align 8
  store %"struct.std::_Vector_base<std::basic_string<char>, std::allocator<std::basic_string<char> > >::_Vector_impl"* %this, %"struct.std::_Vector_base<std::basic_string<char>, std::allocator<std::basic_string<char> > >::_Vector_impl"** %1, align 8
  %2 = load %"struct.std::_Vector_base<std::basic_string<char>, std::allocator<std::basic_string<char> > >::_Vector_impl"** %1
  %3 = bitcast %"struct.std::_Vector_base<std::basic_string<char>, std::allocator<std::basic_string<char> > >::_Vector_impl"* %2 to %"class.std::allocator"*, !dbg !1698
  call void @_ZNSaISsED2Ev(%"class.std::allocator"* %3) #2, !dbg !1698
  ret void, !dbg !1700
}

declare void @__cxa_call_unexpected(i8*)

; Function Attrs: nounwind uwtable
define linkonce_odr void @_ZNSaISsED2Ev(%"class.std::allocator"* %this) unnamed_addr #5 align 2 {
  %1 = alloca %"class.std::allocator"*, align 8
  store %"class.std::allocator"* %this, %"class.std::allocator"** %1, align 8
  %2 = load %"class.std::allocator"** %1
  %3 = bitcast %"class.std::allocator"* %2 to %"class.__gnu_cxx::new_allocator"*, !dbg !1701
  call void @_ZN9__gnu_cxx13new_allocatorISsED2Ev(%"class.__gnu_cxx::new_allocator"* %3) #2, !dbg !1701
  ret void, !dbg !1704
}

; Function Attrs: nounwind uwtable
define linkonce_odr void @_ZN9__gnu_cxx13new_allocatorISsED2Ev(%"class.__gnu_cxx::new_allocator"* %this) unnamed_addr #5 align 2 {
  %1 = alloca %"class.__gnu_cxx::new_allocator"*, align 8
  store %"class.__gnu_cxx::new_allocator"* %this, %"class.__gnu_cxx::new_allocator"** %1, align 8
  %2 = load %"class.__gnu_cxx::new_allocator"** %1
  ret void, !dbg !1705
}

; Function Attrs: uwtable
define linkonce_odr void @_ZNSt12_Vector_baseISsSaISsEEC2Ev(%"struct.std::_Vector_base"* %this) unnamed_addr #3 align 2 {
  %1 = alloca %"struct.std::_Vector_base"*, align 8
  store %"struct.std::_Vector_base"* %this, %"struct.std::_Vector_base"** %1, align 8
  %2 = load %"struct.std::_Vector_base"** %1
  %3 = getelementptr inbounds %"struct.std::_Vector_base"* %2, i32 0, i32 0, !dbg !1707
  call void @_ZNSt12_Vector_baseISsSaISsEE12_Vector_implC2Ev(%"struct.std::_Vector_base<std::basic_string<char>, std::allocator<std::basic_string<char> > >::_Vector_impl"* %3), !dbg !1707
  ret void, !dbg !1707
}

; Function Attrs: nounwind uwtable
define linkonce_odr void @_ZNSt12_Vector_baseISsSaISsEE12_Vector_implC2Ev(%"struct.std::_Vector_base<std::basic_string<char>, std::allocator<std::basic_string<char> > >::_Vector_impl"* %this) unnamed_addr #5 align 2 {
  %1 = alloca %"struct.std::_Vector_base<std::basic_string<char>, std::allocator<std::basic_string<char> > >::_Vector_impl"*, align 8
  store %"struct.std::_Vector_base<std::basic_string<char>, std::allocator<std::basic_string<char> > >::_Vector_impl"* %this, %"struct.std::_Vector_base<std::basic_string<char>, std::allocator<std::basic_string<char> > >::_Vector_impl"** %1, align 8
  %2 = load %"struct.std::_Vector_base<std::basic_string<char>, std::allocator<std::basic_string<char> > >::_Vector_impl"** %1
  %3 = bitcast %"struct.std::_Vector_base<std::basic_string<char>, std::allocator<std::basic_string<char> > >::_Vector_impl"* %2 to %"class.std::allocator"*, !dbg !1708
  call void @_ZNSaISsEC2Ev(%"class.std::allocator"* %3) #2, !dbg !1708
  %4 = getelementptr inbounds %"struct.std::_Vector_base<std::basic_string<char>, std::allocator<std::basic_string<char> > >::_Vector_impl"* %2, i32 0, i32 0, !dbg !1708
  store %"class.std::basic_string"* null, %"class.std::basic_string"** %4, align 8, !dbg !1708
  %5 = getelementptr inbounds %"struct.std::_Vector_base<std::basic_string<char>, std::allocator<std::basic_string<char> > >::_Vector_impl"* %2, i32 0, i32 1, !dbg !1708
  store %"class.std::basic_string"* null, %"class.std::basic_string"** %5, align 8, !dbg !1708
  %6 = getelementptr inbounds %"struct.std::_Vector_base<std::basic_string<char>, std::allocator<std::basic_string<char> > >::_Vector_impl"* %2, i32 0, i32 2, !dbg !1708
  store %"class.std::basic_string"* null, %"class.std::basic_string"** %6, align 8, !dbg !1708
  ret void, !dbg !1708
}

; Function Attrs: nounwind uwtable
define linkonce_odr void @_ZNSaISsEC2Ev(%"class.std::allocator"* %this) unnamed_addr #5 align 2 {
  %1 = alloca %"class.std::allocator"*, align 8
  store %"class.std::allocator"* %this, %"class.std::allocator"** %1, align 8
  %2 = load %"class.std::allocator"** %1
  %3 = bitcast %"class.std::allocator"* %2 to %"class.__gnu_cxx::new_allocator"*, !dbg !1709
  call void @_ZN9__gnu_cxx13new_allocatorISsEC2Ev(%"class.__gnu_cxx::new_allocator"* %3) #2, !dbg !1709
  ret void, !dbg !1709
}

; Function Attrs: nounwind uwtable
define linkonce_odr void @_ZN9__gnu_cxx13new_allocatorISsEC2Ev(%"class.__gnu_cxx::new_allocator"* %this) unnamed_addr #5 align 2 {
  %1 = alloca %"class.__gnu_cxx::new_allocator"*, align 8
  store %"class.__gnu_cxx::new_allocator"* %this, %"class.__gnu_cxx::new_allocator"** %1, align 8
  %2 = load %"class.__gnu_cxx::new_allocator"** %1
  ret void, !dbg !1711
}

define internal void @_GLOBAL__I_a() section ".text.startup" {
  call void @__cxx_global_var_init(), !dbg !1713
  ret void, !dbg !1713
}

; Function Attrs: noreturn nounwind
declare void @abort() #12

; Function Attrs: nounwind uwtable
define void @klee_div_zero_check(i64 %z) #13 {
  %1 = icmp eq i64 %z, 0, !dbg !1714
  br i1 %1, label %2, label %3, !dbg !1714

; <label>:2                                       ; preds = %0
  tail call void @klee_report_error(i8* getelementptr inbounds ([60 x i8]* @.str11, i64 0, i64 0), i32 14, i8* getelementptr inbounds ([15 x i8]* @.str112, i64 0, i64 0), i8* getelementptr inbounds ([8 x i8]* @.str213, i64 0, i64 0)) #17, !dbg !1716
  unreachable, !dbg !1716

; <label>:3                                       ; preds = %0
  ret void, !dbg !1717
}

; Function Attrs: noreturn
declare void @klee_report_error(i8*, i32, i8*, i8*) #14

; Function Attrs: nounwind readnone
declare void @llvm.dbg.value(metadata, i64, metadata) #4

; Function Attrs: nounwind uwtable
define i32 @klee_int(i8* %name) #13 {
  %x = alloca i32, align 4
  %1 = bitcast i32* %x to i8*, !dbg !1718
  call void @klee_make_symbolic(i8* %1, i64 4, i8* %name) #18, !dbg !1718
  %2 = load i32* %x, align 4, !dbg !1719, !tbaa !1720
  ret i32 %2, !dbg !1719
}

; Function Attrs: nounwind uwtable
define void @klee_overshift_check(i64 %bitWidth, i64 %shift) #13 {
  %1 = icmp ult i64 %shift, %bitWidth, !dbg !1724
  br i1 %1, label %3, label %2, !dbg !1724

; <label>:2                                       ; preds = %0
  tail call void @klee_report_error(i8* getelementptr inbounds ([8 x i8]* @.str314, i64 0, i64 0), i32 0, i8* getelementptr inbounds ([16 x i8]* @.str14, i64 0, i64 0), i8* getelementptr inbounds ([14 x i8]* @.str25, i64 0, i64 0)) #17, !dbg !1726
  unreachable, !dbg !1726

; <label>:3                                       ; preds = %0
  ret void, !dbg !1728
}

; Function Attrs: nounwind uwtable
define i32 @klee_range(i32 %start, i32 %end, i8* %name) #13 {
  %x = alloca i32, align 4
  %1 = icmp slt i32 %start, %end, !dbg !1729
  br i1 %1, label %3, label %2, !dbg !1729

; <label>:2                                       ; preds = %0
  call void @klee_report_error(i8* getelementptr inbounds ([51 x i8]* @.str615, i64 0, i64 0), i32 17, i8* getelementptr inbounds ([14 x i8]* @.str17, i64 0, i64 0), i8* getelementptr inbounds ([5 x i8]* @.str28, i64 0, i64 0)) #17, !dbg !1731
  unreachable, !dbg !1731

; <label>:3                                       ; preds = %0
  %4 = add nsw i32 %start, 1, !dbg !1732
  %5 = icmp eq i32 %4, %end, !dbg !1732
  br i1 %5, label %21, label %6, !dbg !1732

; <label>:6                                       ; preds = %3
  %7 = bitcast i32* %x to i8*, !dbg !1734
  call void @klee_make_symbolic(i8* %7, i64 4, i8* %name) #18, !dbg !1734
  %8 = icmp eq i32 %start, 0, !dbg !1736
  %9 = load i32* %x, align 4, !dbg !1738, !tbaa !1720
  br i1 %8, label %10, label %13, !dbg !1736

; <label>:10                                      ; preds = %6
  %11 = icmp ult i32 %9, %end, !dbg !1738
  %12 = zext i1 %11 to i64, !dbg !1738
  call void @klee_assume(i64 %12) #18, !dbg !1738
  br label %19, !dbg !1740

; <label>:13                                      ; preds = %6
  %14 = icmp sge i32 %9, %start, !dbg !1741
  %15 = zext i1 %14 to i64, !dbg !1741
  call void @klee_assume(i64 %15) #18, !dbg !1741
  %16 = load i32* %x, align 4, !dbg !1743, !tbaa !1720
  %17 = icmp slt i32 %16, %end, !dbg !1743
  %18 = zext i1 %17 to i64, !dbg !1743
  call void @klee_assume(i64 %18) #18, !dbg !1743
  br label %19

; <label>:19                                      ; preds = %13, %10
  %20 = load i32* %x, align 4, !dbg !1744, !tbaa !1720
  br label %21, !dbg !1744

; <label>:21                                      ; preds = %19, %3
  %.0 = phi i32 [ %20, %19 ], [ %start, %3 ]
  ret i32 %.0, !dbg !1745
}

declare void @klee_assume(i64) #15

; Function Attrs: nounwind uwtable
define weak i8* @memcpy(i8* %destaddr, i8* %srcaddr, i64 %len) #13 {
  %1 = icmp eq i64 %len, 0, !dbg !1746
  br i1 %1, label %._crit_edge, label %.lr.ph.preheader, !dbg !1746

.lr.ph.preheader:                                 ; preds = %0
  %n.vec = and i64 %len, -32
  %cmp.zero = icmp eq i64 %n.vec, 0
  %2 = add i64 %len, -1
  br i1 %cmp.zero, label %middle.block, label %vector.memcheck

vector.memcheck:                                  ; preds = %.lr.ph.preheader
  %scevgep4 = getelementptr i8* %srcaddr, i64 %2
  %scevgep = getelementptr i8* %destaddr, i64 %2
  %bound1 = icmp uge i8* %scevgep, %srcaddr
  %bound0 = icmp uge i8* %scevgep4, %destaddr
  %memcheck.conflict = and i1 %bound0, %bound1
  %ptr.ind.end = getelementptr i8* %srcaddr, i64 %n.vec
  %ptr.ind.end6 = getelementptr i8* %destaddr, i64 %n.vec
  %rev.ind.end = sub i64 %len, %n.vec
  br i1 %memcheck.conflict, label %middle.block, label %vector.body

vector.body:                                      ; preds = %vector.body, %vector.memcheck
  %index = phi i64 [ %index.next, %vector.body ], [ 0, %vector.memcheck ]
  %next.gep = getelementptr i8* %srcaddr, i64 %index
  %next.gep103 = getelementptr i8* %destaddr, i64 %index
  %3 = bitcast i8* %next.gep to <16 x i8>*, !dbg !1747
  %wide.load = load <16 x i8>* %3, align 1, !dbg !1747
  %next.gep.sum279 = or i64 %index, 16, !dbg !1747
  %4 = getelementptr i8* %srcaddr, i64 %next.gep.sum279, !dbg !1747
  %5 = bitcast i8* %4 to <16 x i8>*, !dbg !1747
  %wide.load200 = load <16 x i8>* %5, align 1, !dbg !1747
  %6 = bitcast i8* %next.gep103 to <16 x i8>*, !dbg !1747
  store <16 x i8> %wide.load, <16 x i8>* %6, align 1, !dbg !1747
  %next.gep103.sum296 = or i64 %index, 16, !dbg !1747
  %7 = getelementptr i8* %destaddr, i64 %next.gep103.sum296, !dbg !1747
  %8 = bitcast i8* %7 to <16 x i8>*, !dbg !1747
  store <16 x i8> %wide.load200, <16 x i8>* %8, align 1, !dbg !1747
  %index.next = add i64 %index, 32
  %9 = icmp eq i64 %index.next, %n.vec
  br i1 %9, label %middle.block, label %vector.body, !llvm.loop !1748

middle.block:                                     ; preds = %vector.body, %vector.memcheck, %.lr.ph.preheader
  %resume.val = phi i8* [ %srcaddr, %.lr.ph.preheader ], [ %srcaddr, %vector.memcheck ], [ %ptr.ind.end, %vector.body ]
  %resume.val5 = phi i8* [ %destaddr, %.lr.ph.preheader ], [ %destaddr, %vector.memcheck ], [ %ptr.ind.end6, %vector.body ]
  %resume.val7 = phi i64 [ %len, %.lr.ph.preheader ], [ %len, %vector.memcheck ], [ %rev.ind.end, %vector.body ]
  %new.indc.resume.val = phi i64 [ 0, %.lr.ph.preheader ], [ 0, %vector.memcheck ], [ %n.vec, %vector.body ]
  %cmp.n = icmp eq i64 %new.indc.resume.val, %len
  br i1 %cmp.n, label %._crit_edge, label %.lr.ph

.lr.ph:                                           ; preds = %.lr.ph, %middle.block
  %src.03 = phi i8* [ %11, %.lr.ph ], [ %resume.val, %middle.block ]
  %dest.02 = phi i8* [ %13, %.lr.ph ], [ %resume.val5, %middle.block ]
  %.01 = phi i64 [ %10, %.lr.ph ], [ %resume.val7, %middle.block ]
  %10 = add i64 %.01, -1, !dbg !1746
  %11 = getelementptr inbounds i8* %src.03, i64 1, !dbg !1747
  %12 = load i8* %src.03, align 1, !dbg !1747, !tbaa !1751
  %13 = getelementptr inbounds i8* %dest.02, i64 1, !dbg !1747
  store i8 %12, i8* %dest.02, align 1, !dbg !1747, !tbaa !1751
  %14 = icmp eq i64 %10, 0, !dbg !1746
  br i1 %14, label %._crit_edge, label %.lr.ph, !dbg !1746, !llvm.loop !1752

._crit_edge:                                      ; preds = %.lr.ph, %middle.block, %0
  ret i8* %destaddr, !dbg !1753
}

; Function Attrs: nounwind uwtable
define weak i8* @memmove(i8* %dst, i8* %src, i64 %count) #13 {
  %1 = icmp eq i8* %src, %dst, !dbg !1754
  br i1 %1, label %.loopexit, label %2, !dbg !1754

; <label>:2                                       ; preds = %0
  %3 = icmp ugt i8* %src, %dst, !dbg !1756
  br i1 %3, label %.preheader, label %18, !dbg !1756

.preheader:                                       ; preds = %2
  %4 = icmp eq i64 %count, 0, !dbg !1758
  br i1 %4, label %.loopexit, label %.lr.ph.preheader, !dbg !1758

.lr.ph.preheader:                                 ; preds = %.preheader
  %n.vec = and i64 %count, -32
  %cmp.zero = icmp eq i64 %n.vec, 0
  %5 = add i64 %count, -1
  br i1 %cmp.zero, label %middle.block, label %vector.memcheck

vector.memcheck:                                  ; preds = %.lr.ph.preheader
  %scevgep11 = getelementptr i8* %src, i64 %5
  %scevgep = getelementptr i8* %dst, i64 %5
  %bound1 = icmp uge i8* %scevgep, %src
  %bound0 = icmp uge i8* %scevgep11, %dst
  %memcheck.conflict = and i1 %bound0, %bound1
  %ptr.ind.end = getelementptr i8* %src, i64 %n.vec
  %ptr.ind.end13 = getelementptr i8* %dst, i64 %n.vec
  %rev.ind.end = sub i64 %count, %n.vec
  br i1 %memcheck.conflict, label %middle.block, label %vector.body

vector.body:                                      ; preds = %vector.body, %vector.memcheck
  %index = phi i64 [ %index.next, %vector.body ], [ 0, %vector.memcheck ]
  %next.gep = getelementptr i8* %src, i64 %index
  %next.gep110 = getelementptr i8* %dst, i64 %index
  %6 = bitcast i8* %next.gep to <16 x i8>*, !dbg !1758
  %wide.load = load <16 x i8>* %6, align 1, !dbg !1758
  %next.gep.sum586 = or i64 %index, 16, !dbg !1758
  %7 = getelementptr i8* %src, i64 %next.gep.sum586, !dbg !1758
  %8 = bitcast i8* %7 to <16 x i8>*, !dbg !1758
  %wide.load207 = load <16 x i8>* %8, align 1, !dbg !1758
  %9 = bitcast i8* %next.gep110 to <16 x i8>*, !dbg !1758
  store <16 x i8> %wide.load, <16 x i8>* %9, align 1, !dbg !1758
  %next.gep110.sum603 = or i64 %index, 16, !dbg !1758
  %10 = getelementptr i8* %dst, i64 %next.gep110.sum603, !dbg !1758
  %11 = bitcast i8* %10 to <16 x i8>*, !dbg !1758
  store <16 x i8> %wide.load207, <16 x i8>* %11, align 1, !dbg !1758
  %index.next = add i64 %index, 32
  %12 = icmp eq i64 %index.next, %n.vec
  br i1 %12, label %middle.block, label %vector.body, !llvm.loop !1760

middle.block:                                     ; preds = %vector.body, %vector.memcheck, %.lr.ph.preheader
  %resume.val = phi i8* [ %src, %.lr.ph.preheader ], [ %src, %vector.memcheck ], [ %ptr.ind.end, %vector.body ]
  %resume.val12 = phi i8* [ %dst, %.lr.ph.preheader ], [ %dst, %vector.memcheck ], [ %ptr.ind.end13, %vector.body ]
  %resume.val14 = phi i64 [ %count, %.lr.ph.preheader ], [ %count, %vector.memcheck ], [ %rev.ind.end, %vector.body ]
  %new.indc.resume.val = phi i64 [ 0, %.lr.ph.preheader ], [ 0, %vector.memcheck ], [ %n.vec, %vector.body ]
  %cmp.n = icmp eq i64 %new.indc.resume.val, %count
  br i1 %cmp.n, label %.loopexit, label %.lr.ph

.lr.ph:                                           ; preds = %.lr.ph, %middle.block
  %b.04 = phi i8* [ %14, %.lr.ph ], [ %resume.val, %middle.block ]
  %a.03 = phi i8* [ %16, %.lr.ph ], [ %resume.val12, %middle.block ]
  %.02 = phi i64 [ %13, %.lr.ph ], [ %resume.val14, %middle.block ]
  %13 = add i64 %.02, -1, !dbg !1758
  %14 = getelementptr inbounds i8* %b.04, i64 1, !dbg !1758
  %15 = load i8* %b.04, align 1, !dbg !1758, !tbaa !1751
  %16 = getelementptr inbounds i8* %a.03, i64 1, !dbg !1758
  store i8 %15, i8* %a.03, align 1, !dbg !1758, !tbaa !1751
  %17 = icmp eq i64 %13, 0, !dbg !1758
  br i1 %17, label %.loopexit, label %.lr.ph, !dbg !1758, !llvm.loop !1761

; <label>:18                                      ; preds = %2
  %19 = add i64 %count, -1, !dbg !1762
  %20 = icmp eq i64 %count, 0, !dbg !1764
  br i1 %20, label %.loopexit, label %.lr.ph9, !dbg !1764

.lr.ph9:                                          ; preds = %18
  %21 = getelementptr inbounds i8* %src, i64 %19, !dbg !1765
  %22 = getelementptr inbounds i8* %dst, i64 %19, !dbg !1762
  %n.vec215 = and i64 %count, -32
  %cmp.zero217 = icmp eq i64 %n.vec215, 0
  %23 = add i64 %count, -1
  br i1 %cmp.zero217, label %middle.block210, label %vector.memcheck224

vector.memcheck224:                               ; preds = %.lr.ph9
  %scevgep219 = getelementptr i8* %src, i64 %23
  %scevgep218 = getelementptr i8* %dst, i64 %23
  %bound1221 = icmp ule i8* %scevgep219, %dst
  %bound0220 = icmp ule i8* %scevgep218, %src
  %memcheck.conflict223 = and i1 %bound0220, %bound1221
  %.sum = sub i64 %19, %n.vec215
  %rev.ptr.ind.end = getelementptr i8* %src, i64 %.sum
  %.sum439 = sub i64 %19, %n.vec215
  %rev.ptr.ind.end229 = getelementptr i8* %dst, i64 %.sum439
  %rev.ind.end231 = sub i64 %count, %n.vec215
  br i1 %memcheck.conflict223, label %middle.block210, label %vector.body209

vector.body209:                                   ; preds = %vector.body209, %vector.memcheck224
  %index212 = phi i64 [ %index.next234, %vector.body209 ], [ 0, %vector.memcheck224 ]
  %.sum440 = sub i64 %19, %index212
  %.sum472 = sub i64 %19, %index212
  %next.gep236.sum = add i64 %.sum440, -15, !dbg !1764
  %24 = getelementptr i8* %src, i64 %next.gep236.sum, !dbg !1764
  %25 = bitcast i8* %24 to <16 x i8>*, !dbg !1764
  %wide.load434 = load <16 x i8>* %25, align 1, !dbg !1764
  %reverse = shufflevector <16 x i8> %wide.load434, <16 x i8> undef, <16 x i32> <i32 15, i32 14, i32 13, i32 12, i32 11, i32 10, i32 9, i32 8, i32 7, i32 6, i32 5, i32 4, i32 3, i32 2, i32 1, i32 0>, !dbg !1764
  %.sum505 = add i64 %.sum440, -31, !dbg !1764
  %26 = getelementptr i8* %src, i64 %.sum505, !dbg !1764
  %27 = bitcast i8* %26 to <16 x i8>*, !dbg !1764
  %wide.load435 = load <16 x i8>* %27, align 1, !dbg !1764
  %reverse436 = shufflevector <16 x i8> %wide.load435, <16 x i8> undef, <16 x i32> <i32 15, i32 14, i32 13, i32 12, i32 11, i32 10, i32 9, i32 8, i32 7, i32 6, i32 5, i32 4, i32 3, i32 2, i32 1, i32 0>, !dbg !1764
  %reverse437 = shufflevector <16 x i8> %reverse, <16 x i8> undef, <16 x i32> <i32 15, i32 14, i32 13, i32 12, i32 11, i32 10, i32 9, i32 8, i32 7, i32 6, i32 5, i32 4, i32 3, i32 2, i32 1, i32 0>, !dbg !1764
  %next.gep333.sum = add i64 %.sum472, -15, !dbg !1764
  %28 = getelementptr i8* %dst, i64 %next.gep333.sum, !dbg !1764
  %29 = bitcast i8* %28 to <16 x i8>*, !dbg !1764
  store <16 x i8> %reverse437, <16 x i8>* %29, align 1, !dbg !1764
  %reverse438 = shufflevector <16 x i8> %reverse436, <16 x i8> undef, <16 x i32> <i32 15, i32 14, i32 13, i32 12, i32 11, i32 10, i32 9, i32 8, i32 7, i32 6, i32 5, i32 4, i32 3, i32 2, i32 1, i32 0>, !dbg !1764
  %.sum507 = add i64 %.sum472, -31, !dbg !1764
  %30 = getelementptr i8* %dst, i64 %.sum507, !dbg !1764
  %31 = bitcast i8* %30 to <16 x i8>*, !dbg !1764
  store <16 x i8> %reverse438, <16 x i8>* %31, align 1, !dbg !1764
  %index.next234 = add i64 %index212, 32
  %32 = icmp eq i64 %index.next234, %n.vec215
  br i1 %32, label %middle.block210, label %vector.body209, !llvm.loop !1766

middle.block210:                                  ; preds = %vector.body209, %vector.memcheck224, %.lr.ph9
  %resume.val225 = phi i8* [ %21, %.lr.ph9 ], [ %21, %vector.memcheck224 ], [ %rev.ptr.ind.end, %vector.body209 ]
  %resume.val227 = phi i8* [ %22, %.lr.ph9 ], [ %22, %vector.memcheck224 ], [ %rev.ptr.ind.end229, %vector.body209 ]
  %resume.val230 = phi i64 [ %count, %.lr.ph9 ], [ %count, %vector.memcheck224 ], [ %rev.ind.end231, %vector.body209 ]
  %new.indc.resume.val232 = phi i64 [ 0, %.lr.ph9 ], [ 0, %vector.memcheck224 ], [ %n.vec215, %vector.body209 ]
  %cmp.n233 = icmp eq i64 %new.indc.resume.val232, %count
  br i1 %cmp.n233, label %.loopexit, label %scalar.ph211

scalar.ph211:                                     ; preds = %scalar.ph211, %middle.block210
  %b.18 = phi i8* [ %34, %scalar.ph211 ], [ %resume.val225, %middle.block210 ]
  %a.17 = phi i8* [ %36, %scalar.ph211 ], [ %resume.val227, %middle.block210 ]
  %.16 = phi i64 [ %33, %scalar.ph211 ], [ %resume.val230, %middle.block210 ]
  %33 = add i64 %.16, -1, !dbg !1764
  %34 = getelementptr inbounds i8* %b.18, i64 -1, !dbg !1764
  %35 = load i8* %b.18, align 1, !dbg !1764, !tbaa !1751
  %36 = getelementptr inbounds i8* %a.17, i64 -1, !dbg !1764
  store i8 %35, i8* %a.17, align 1, !dbg !1764, !tbaa !1751
  %37 = icmp eq i64 %33, 0, !dbg !1764
  br i1 %37, label %.loopexit, label %scalar.ph211, !dbg !1764, !llvm.loop !1767

.loopexit:                                        ; preds = %scalar.ph211, %middle.block210, %18, %.lr.ph, %middle.block, %.preheader, %0
  ret i8* %dst, !dbg !1768
}

; Function Attrs: nounwind uwtable
define weak i8* @mempcpy(i8* %destaddr, i8* %srcaddr, i64 %len) #13 {
  %1 = icmp eq i64 %len, 0, !dbg !1769
  br i1 %1, label %15, label %.lr.ph.preheader, !dbg !1769

.lr.ph.preheader:                                 ; preds = %0
  %n.vec = and i64 %len, -32
  %cmp.zero = icmp eq i64 %n.vec, 0
  %2 = add i64 %len, -1
  br i1 %cmp.zero, label %middle.block, label %vector.memcheck

vector.memcheck:                                  ; preds = %.lr.ph.preheader
  %scevgep5 = getelementptr i8* %srcaddr, i64 %2
  %scevgep4 = getelementptr i8* %destaddr, i64 %2
  %bound1 = icmp uge i8* %scevgep4, %srcaddr
  %bound0 = icmp uge i8* %scevgep5, %destaddr
  %memcheck.conflict = and i1 %bound0, %bound1
  %ptr.ind.end = getelementptr i8* %srcaddr, i64 %n.vec
  %ptr.ind.end7 = getelementptr i8* %destaddr, i64 %n.vec
  %rev.ind.end = sub i64 %len, %n.vec
  br i1 %memcheck.conflict, label %middle.block, label %vector.body

vector.body:                                      ; preds = %vector.body, %vector.memcheck
  %index = phi i64 [ %index.next, %vector.body ], [ 0, %vector.memcheck ]
  %next.gep = getelementptr i8* %srcaddr, i64 %index
  %next.gep104 = getelementptr i8* %destaddr, i64 %index
  %3 = bitcast i8* %next.gep to <16 x i8>*, !dbg !1770
  %wide.load = load <16 x i8>* %3, align 1, !dbg !1770
  %next.gep.sum280 = or i64 %index, 16, !dbg !1770
  %4 = getelementptr i8* %srcaddr, i64 %next.gep.sum280, !dbg !1770
  %5 = bitcast i8* %4 to <16 x i8>*, !dbg !1770
  %wide.load201 = load <16 x i8>* %5, align 1, !dbg !1770
  %6 = bitcast i8* %next.gep104 to <16 x i8>*, !dbg !1770
  store <16 x i8> %wide.load, <16 x i8>* %6, align 1, !dbg !1770
  %next.gep104.sum297 = or i64 %index, 16, !dbg !1770
  %7 = getelementptr i8* %destaddr, i64 %next.gep104.sum297, !dbg !1770
  %8 = bitcast i8* %7 to <16 x i8>*, !dbg !1770
  store <16 x i8> %wide.load201, <16 x i8>* %8, align 1, !dbg !1770
  %index.next = add i64 %index, 32
  %9 = icmp eq i64 %index.next, %n.vec
  br i1 %9, label %middle.block, label %vector.body, !llvm.loop !1771

middle.block:                                     ; preds = %vector.body, %vector.memcheck, %.lr.ph.preheader
  %resume.val = phi i8* [ %srcaddr, %.lr.ph.preheader ], [ %srcaddr, %vector.memcheck ], [ %ptr.ind.end, %vector.body ]
  %resume.val6 = phi i8* [ %destaddr, %.lr.ph.preheader ], [ %destaddr, %vector.memcheck ], [ %ptr.ind.end7, %vector.body ]
  %resume.val8 = phi i64 [ %len, %.lr.ph.preheader ], [ %len, %vector.memcheck ], [ %rev.ind.end, %vector.body ]
  %new.indc.resume.val = phi i64 [ 0, %.lr.ph.preheader ], [ 0, %vector.memcheck ], [ %n.vec, %vector.body ]
  %cmp.n = icmp eq i64 %new.indc.resume.val, %len
  br i1 %cmp.n, label %._crit_edge, label %.lr.ph

.lr.ph:                                           ; preds = %.lr.ph, %middle.block
  %src.03 = phi i8* [ %11, %.lr.ph ], [ %resume.val, %middle.block ]
  %dest.02 = phi i8* [ %13, %.lr.ph ], [ %resume.val6, %middle.block ]
  %.01 = phi i64 [ %10, %.lr.ph ], [ %resume.val8, %middle.block ]
  %10 = add i64 %.01, -1, !dbg !1769
  %11 = getelementptr inbounds i8* %src.03, i64 1, !dbg !1770
  %12 = load i8* %src.03, align 1, !dbg !1770, !tbaa !1751
  %13 = getelementptr inbounds i8* %dest.02, i64 1, !dbg !1770
  store i8 %12, i8* %dest.02, align 1, !dbg !1770, !tbaa !1751
  %14 = icmp eq i64 %10, 0, !dbg !1769
  br i1 %14, label %._crit_edge, label %.lr.ph, !dbg !1769, !llvm.loop !1772

._crit_edge:                                      ; preds = %.lr.ph, %middle.block
  %scevgep = getelementptr i8* %destaddr, i64 %len
  br label %15, !dbg !1769

; <label>:15                                      ; preds = %._crit_edge, %0
  %dest.0.lcssa = phi i8* [ %scevgep, %._crit_edge ], [ %destaddr, %0 ]
  ret i8* %dest.0.lcssa, !dbg !1773
}

; Function Attrs: nounwind uwtable
define weak i8* @memset(i8* %dst, i32 %s, i64 %count) #13 {
  %1 = icmp eq i64 %count, 0, !dbg !1774
  br i1 %1, label %._crit_edge, label %.lr.ph, !dbg !1774

.lr.ph:                                           ; preds = %0
  %2 = trunc i32 %s to i8, !dbg !1775
  br label %3, !dbg !1774

; <label>:3                                       ; preds = %3, %.lr.ph
  %a.02 = phi i8* [ %dst, %.lr.ph ], [ %5, %3 ]
  %.01 = phi i64 [ %count, %.lr.ph ], [ %4, %3 ]
  %4 = add i64 %.01, -1, !dbg !1774
  %5 = getelementptr inbounds i8* %a.02, i64 1, !dbg !1775
  store volatile i8 %2, i8* %a.02, align 1, !dbg !1775, !tbaa !1751
  %6 = icmp eq i64 %4, 0, !dbg !1774
  br i1 %6, label %._crit_edge, label %3, !dbg !1774

._crit_edge:                                      ; preds = %3, %0
  ret i8* %dst, !dbg !1776
}

define internal void @klee.ctor_stub() {
entry:
  call void @_GLOBAL__I_a()
  ret void
}

attributes #0 = { "less-precise-fpmad"="false" "no-frame-pointer-elim"="true" "no-frame-pointer-elim-non-leaf" "no-infs-fp-math"="false" "no-nans-fp-math"="false" "stack-protector-buffer-size"="8" "unsafe-fp-math"="false" "use-soft-float"="false" }
attributes #1 = { nounwind "less-precise-fpmad"="false" "no-frame-pointer-elim"="true" "no-frame-pointer-elim-non-leaf" "no-infs-fp-math"="false" "no-nans-fp-math"="false" "stack-protector-buffer-size"="8" "unsafe-fp-math"="false" "use-soft-float"="false
attributes #2 = { nounwind }
attributes #3 = { uwtable "less-precise-fpmad"="false" "no-frame-pointer-elim"="true" "no-frame-pointer-elim-non-leaf" "no-infs-fp-math"="false" "no-nans-fp-math"="false" "stack-protector-buffer-size"="8" "unsafe-fp-math"="false" "use-soft-float"="false"
attributes #4 = { nounwind readnone }
attributes #5 = { nounwind uwtable "less-precise-fpmad"="false" "no-frame-pointer-elim"="true" "no-frame-pointer-elim-non-leaf" "no-infs-fp-math"="false" "no-nans-fp-math"="false" "stack-protector-buffer-size"="8" "unsafe-fp-math"="false" "use-soft-float
attributes #6 = { inlinehint nounwind uwtable "less-precise-fpmad"="false" "no-frame-pointer-elim"="true" "no-frame-pointer-elim-non-leaf" "no-infs-fp-math"="false" "no-nans-fp-math"="false" "stack-protector-buffer-size"="8" "unsafe-fp-math"="false" "use
attributes #7 = { inlinehint uwtable "less-precise-fpmad"="false" "no-frame-pointer-elim"="true" "no-frame-pointer-elim-non-leaf" "no-infs-fp-math"="false" "no-nans-fp-math"="false" "stack-protector-buffer-size"="8" "unsafe-fp-math"="false" "use-soft-flo
attributes #8 = { noinline noreturn nounwind }
attributes #9 = { nobuiltin nounwind "less-precise-fpmad"="false" "no-frame-pointer-elim"="true" "no-frame-pointer-elim-non-leaf" "no-infs-fp-math"="false" "no-nans-fp-math"="false" "stack-protector-buffer-size"="8" "unsafe-fp-math"="false" "use-soft-flo
attributes #10 = { noreturn "less-precise-fpmad"="false" "no-frame-pointer-elim"="true" "no-frame-pointer-elim-non-leaf" "no-infs-fp-math"="false" "no-nans-fp-math"="false" "stack-protector-buffer-size"="8" "unsafe-fp-math"="false" "use-soft-float"="fals
attributes #11 = { nobuiltin "less-precise-fpmad"="false" "no-frame-pointer-elim"="true" "no-frame-pointer-elim-non-leaf" "no-infs-fp-math"="false" "no-nans-fp-math"="false" "stack-protector-buffer-size"="8" "unsafe-fp-math"="false" "use-soft-float"="fal
attributes #12 = { noreturn nounwind }
attributes #13 = { nounwind uwtable "less-precise-fpmad"="false" "no-frame-pointer-elim"="false" "no-infs-fp-math"="false" "no-nans-fp-math"="false" "stack-protector-buffer-size"="8" "unsafe-fp-math"="false" "use-soft-float"="false" }
attributes #14 = { noreturn "less-precise-fpmad"="false" "no-frame-pointer-elim"="false" "no-infs-fp-math"="false" "no-nans-fp-math"="false" "stack-protector-buffer-size"="8" "unsafe-fp-math"="false" "use-soft-float"="false" }
attributes #15 = { "less-precise-fpmad"="false" "no-frame-pointer-elim"="false" "no-infs-fp-math"="false" "no-nans-fp-math"="false" "stack-protector-buffer-size"="8" "unsafe-fp-math"="false" "use-soft-float"="false" }
attributes #16 = { noreturn }
attributes #17 = { nobuiltin noreturn nounwind }
attributes #18 = { nobuiltin nounwind }

!llvm.dbg.cu = !{!0, !1379, !1389, !1399, !1410, !1422, !1436, !1450, !1464}
!llvm.module.flags = !{!1479, !1480}
!llvm.ident = !{!1481, !1481, !1481, !1481, !1481, !1481, !1481, !1481, !1481}

!0 = metadata !{i32 786449, metadata !1, i32 4, metadata !"Ubuntu clang version 3.4-1ubuntu3 (tags/RELEASE_34/final) (based on LLVM 3.4)", i1 false, metadata !"", i32 0, metadata !2, metadata !17, metadata !1255, metadata !1371, metadata !1373, metadata 
!1 = metadata !{metadata !"commission.cpp", metadata !"/home/klee/ST/commission"}
!2 = metadata !{metadata !3}
!3 = metadata !{i32 786436, metadata !4, metadata !5, metadata !"_Ios_Openmode", i32 105, i64 32, i64 32, i32 0, i32 0, null, metadata !7, i32 0, null, null, metadata !"_ZTSSt13_Ios_Openmode"} ; [ DW_TAG_enumeration_type ] [_Ios_Openmode] [line 105, size
!4 = metadata !{metadata !"/usr/bin/../lib/gcc/x86_64-linux-gnu/4.8/../../../../include/c++/4.8/bits/ios_base.h", metadata !"/home/klee/ST/commission"}
!5 = metadata !{i32 786489, metadata !6, null, metadata !"std", i32 184} ; [ DW_TAG_namespace ] [std] [line 184]
!6 = metadata !{metadata !"/usr/bin/../lib/gcc/x86_64-linux-gnu/4.8/../../../../include/x86_64-linux-gnu/c++/4.8/bits/c++config.h", metadata !"/home/klee/ST/commission"}
!7 = metadata !{metadata !8, metadata !9, metadata !10, metadata !11, metadata !12, metadata !13, metadata !14, metadata !15, metadata !16}
!8 = metadata !{i32 786472, metadata !"_S_app", i64 1} ; [ DW_TAG_enumerator ] [_S_app :: 1]
!9 = metadata !{i32 786472, metadata !"_S_ate", i64 2} ; [ DW_TAG_enumerator ] [_S_ate :: 2]
!10 = metadata !{i32 786472, metadata !"_S_bin", i64 4} ; [ DW_TAG_enumerator ] [_S_bin :: 4]
!11 = metadata !{i32 786472, metadata !"_S_in", i64 8} ; [ DW_TAG_enumerator ] [_S_in :: 8]
!12 = metadata !{i32 786472, metadata !"_S_out", i64 16} ; [ DW_TAG_enumerator ] [_S_out :: 16]
!13 = metadata !{i32 786472, metadata !"_S_trunc", i64 32} ; [ DW_TAG_enumerator ] [_S_trunc :: 32]
!14 = metadata !{i32 786472, metadata !"_S_ios_openmode_end", i64 65536} ; [ DW_TAG_enumerator ] [_S_ios_openmode_end :: 65536]
!15 = metadata !{i32 786472, metadata !"_S_ios_openmode_max", i64 2147483647} ; [ DW_TAG_enumerator ] [_S_ios_openmode_max :: 2147483647]
!16 = metadata !{i32 786472, metadata !"_S_ios_openmode_min", i64 -2147483648} ; [ DW_TAG_enumerator ] [_S_ios_openmode_min :: -2147483648]
!17 = metadata !{metadata !18, metadata !19, metadata !32, metadata !247, metadata !634, metadata !684, metadata !698, metadata !738, metadata !746, metadata !787, metadata !844, metadata !847, metadata !351, metadata !900, metadata !901, metadata !902, 
!18 = metadata !{i32 786434, metadata !4, metadata !5, metadata !"ios_base", i32 205, i64 0, i64 0, i32 0, i32 4, null, null, i32 0, null, null, metadata !"_ZTSSt8ios_base"} ; [ DW_TAG_class_type ] [ios_base] [line 205, size 0, align 0, offset 0] [decl] 
!19 = metadata !{i32 786434, metadata !4, metadata !"_ZTSSt8ios_base", metadata !"Init", i32 539, i64 8, i64 8, i32 0, i32 0, null, metadata !20, i32 0, null, null, metadata !"_ZTSNSt8ios_base4InitE"} ; [ DW_TAG_class_type ] [Init] [line 539, size 8, ali
!20 = metadata !{metadata !21, metadata !24, metadata !26, metadata !31}
!21 = metadata !{i32 786445, metadata !4, metadata !"_ZTSNSt8ios_base4InitE", metadata !"_S_refcount", i32 547, i64 0, i64 0, i64 0, i32 4097, metadata !22, null} ; [ DW_TAG_member ] [_S_refcount] [line 547, size 0, align 0, offset 0] [private] [static] 
!22 = metadata !{i32 786454, metadata !4, null, metadata !"_Atomic_word", i32 32, i64 0, i64 0, i64 0, i32 0, metadata !23} ; [ DW_TAG_typedef ] [_Atomic_word] [line 32, size 0, align 0, offset 0] [from int]
!23 = metadata !{i32 786468, null, null, metadata !"int", i32 0, i64 32, i64 32, i64 0, i32 0, i32 5} ; [ DW_TAG_base_type ] [int] [line 0, size 32, align 32, offset 0, enc DW_ATE_signed]
!24 = metadata !{i32 786445, metadata !4, metadata !"_ZTSNSt8ios_base4InitE", metadata !"_S_synced_with_stdio", i32 548, i64 0, i64 0, i64 0, i32 4097, metadata !25, null} ; [ DW_TAG_member ] [_S_synced_with_stdio] [line 548, size 0, align 0, offset 0] [
!25 = metadata !{i32 786468, null, null, metadata !"bool", i32 0, i64 8, i64 8, i64 0, i32 0, i32 2} ; [ DW_TAG_base_type ] [bool] [line 0, size 8, align 8, offset 0, enc DW_ATE_boolean]
!26 = metadata !{i32 786478, metadata !4, metadata !"_ZTSNSt8ios_base4InitE", metadata !"Init", metadata !"Init", metadata !"", i32 543, metadata !27, i1 false, i1 false, i32 0, i32 0, null, i32 256, i1 false, null, null, i32 0, metadata !30, i32 543} ; 
!27 = metadata !{i32 786453, i32 0, null, metadata !"", i32 0, i64 0, i64 0, i64 0, i32 0, null, metadata !28, i32 0, null, null, null} ; [ DW_TAG_subroutine_type ] [line 0, size 0, align 0, offset 0] [from ]
!28 = metadata !{null, metadata !29}
!29 = metadata !{i32 786447, null, null, metadata !"", i32 0, i64 64, i64 64, i64 0, i32 1088, metadata !"_ZTSNSt8ios_base4InitE"} ; [ DW_TAG_pointer_type ] [line 0, size 64, align 64, offset 0] [artificial] [from _ZTSNSt8ios_base4InitE]
!30 = metadata !{i32 786468}
!31 = metadata !{i32 786478, metadata !4, metadata !"_ZTSNSt8ios_base4InitE", metadata !"~Init", metadata !"~Init", metadata !"", i32 544, metadata !27, i1 false, i1 false, i32 0, i32 0, null, i32 256, i1 false, null, null, i32 0, metadata !30, i32 544} 
!32 = metadata !{i32 786434, metadata !33, metadata !5, metadata !"vector<std::basic_string<char>, std::allocator<std::basic_string<char> > >", i32 210, i64 192, i64 64, i32 0, i32 0, null, metadata !34, i32 0, null, metadata !244, metadata !"_ZTSSt6vect
!33 = metadata !{metadata !"/usr/bin/../lib/gcc/x86_64-linux-gnu/4.8/../../../../include/c++/4.8/bits/stl_vector.h", metadata !"/home/klee/ST/commission"}
!34 = metadata !{metadata !35, metadata !36, metadata !40, metadata !46, metadata !53, metadata !59, metadata !64, metadata !68, metadata !71, metadata !74, metadata !79, metadata !80, metadata !84, metadata !87, metadata !90, metadata !93, metadata !96,
!35 = metadata !{i32 786460, null, metadata !"_ZTSSt6vectorISsSaISsEE", null, i32 0, i64 0, i64 0, i64 0, i32 2, metadata !"_ZTSSt12_Vector_baseISsSaISsEE"} ; [ DW_TAG_inheritance ] [line 0, size 0, align 0, offset 0] [protected] [from _ZTSSt12_Vector_ba
!36 = metadata !{i32 786478, metadata !33, metadata !"_ZTSSt6vectorISsSaISsEE", metadata !"vector", metadata !"vector", metadata !"", i32 248, metadata !37, i1 false, i1 false, i32 0, i32 0, null, i32 256, i1 false, null, null, i32 0, metadata !30, i32 2
!37 = metadata !{i32 786453, i32 0, null, metadata !"", i32 0, i64 0, i64 0, i64 0, i32 0, null, metadata !38, i32 0, null, null, null} ; [ DW_TAG_subroutine_type ] [line 0, size 0, align 0, offset 0] [from ]
!38 = metadata !{null, metadata !39}
!39 = metadata !{i32 786447, null, null, metadata !"", i32 0, i64 64, i64 64, i64 0, i32 1088, metadata !"_ZTSSt6vectorISsSaISsEE"} ; [ DW_TAG_pointer_type ] [line 0, size 64, align 64, offset 0] [artificial] [from _ZTSSt6vectorISsSaISsEE]
!40 = metadata !{i32 786478, metadata !33, metadata !"_ZTSSt6vectorISsSaISsEE", metadata !"vector", metadata !"vector", metadata !"", i32 256, metadata !41, i1 false, i1 false, i32 0, i32 0, null, i32 384, i1 false, null, null, i32 0, metadata !30, i32 2
!41 = metadata !{i32 786453, i32 0, null, metadata !"", i32 0, i64 0, i64 0, i64 0, i32 0, null, metadata !42, i32 0, null, null, null} ; [ DW_TAG_subroutine_type ] [line 0, size 0, align 0, offset 0] [from ]
!42 = metadata !{null, metadata !39, metadata !43}
!43 = metadata !{i32 786448, null, null, null, i32 0, i64 0, i64 0, i64 0, i32 0, metadata !44} ; [ DW_TAG_reference_type ] [line 0, size 0, align 0, offset 0] [from ]
!44 = metadata !{i32 786470, null, null, metadata !"", i32 0, i64 0, i64 0, i64 0, i32 0, metadata !45} ; [ DW_TAG_const_type ] [line 0, size 0, align 0, offset 0] [from allocator_type]
!45 = metadata !{i32 786454, metadata !33, metadata !"_ZTSSt6vectorISsSaISsEE", metadata !"allocator_type", i32 234, i64 0, i64 0, i64 0, i32 0, metadata !"_ZTSSaISsE"} ; [ DW_TAG_typedef ] [allocator_type] [line 234, size 0, align 0, offset 0] [from _ZT
!46 = metadata !{i32 786478, metadata !33, metadata !"_ZTSSt6vectorISsSaISsEE", metadata !"vector", metadata !"vector", metadata !"", i32 269, metadata !47, i1 false, i1 false, i32 0, i32 0, null, i32 384, i1 false, null, null, i32 0, metadata !30, i32 2
!47 = metadata !{i32 786453, i32 0, null, metadata !"", i32 0, i64 0, i64 0, i64 0, i32 0, null, metadata !48, i32 0, null, null, null} ; [ DW_TAG_subroutine_type ] [line 0, size 0, align 0, offset 0] [from ]
!48 = metadata !{null, metadata !39, metadata !49, metadata !43}
!49 = metadata !{i32 786454, metadata !33, null, metadata !"size_type", i32 232, i64 0, i64 0, i64 0, i32 0, metadata !50} ; [ DW_TAG_typedef ] [size_type] [line 232, size 0, align 0, offset 0] [from size_t]
!50 = metadata !{i32 786454, metadata !51, metadata !5, metadata !"size_t", i32 186, i64 0, i64 0, i64 0, i32 0, metadata !52} ; [ DW_TAG_typedef ] [size_t] [line 186, size 0, align 0, offset 0] [from long unsigned int]
!51 = metadata !{metadata !"/usr/bin/../lib/gcc/x86_64-linux-gnu/4.8/../../../../include/c++/4.8/bits/char_traits.h", metadata !"/home/klee/ST/commission"}
!52 = metadata !{i32 786468, null, null, metadata !"long unsigned int", i32 0, i64 64, i64 64, i64 0, i32 0, i32 7} ; [ DW_TAG_base_type ] [long unsigned int] [line 0, size 64, align 64, offset 0, enc DW_ATE_unsigned]
!53 = metadata !{i32 786478, metadata !33, metadata !"_ZTSSt6vectorISsSaISsEE", metadata !"vector", metadata !"vector", metadata !"", i32 281, metadata !54, i1 false, i1 false, i32 0, i32 0, null, i32 256, i1 false, null, null, i32 0, metadata !30, i32 2
!54 = metadata !{i32 786453, i32 0, null, metadata !"", i32 0, i64 0, i64 0, i64 0, i32 0, null, metadata !55, i32 0, null, null, null} ; [ DW_TAG_subroutine_type ] [line 0, size 0, align 0, offset 0] [from ]
!55 = metadata !{null, metadata !39, metadata !49, metadata !56, metadata !43}
!56 = metadata !{i32 786448, null, null, null, i32 0, i64 0, i64 0, i64 0, i32 0, metadata !57} ; [ DW_TAG_reference_type ] [line 0, size 0, align 0, offset 0] [from ]
!57 = metadata !{i32 786470, null, null, metadata !"", i32 0, i64 0, i64 0, i64 0, i32 0, metadata !58} ; [ DW_TAG_const_type ] [line 0, size 0, align 0, offset 0] [from value_type]
!58 = metadata !{i32 786454, metadata !33, metadata !"_ZTSSt6vectorISsSaISsEE", metadata !"value_type", i32 222, i64 0, i64 0, i64 0, i32 0, metadata !"_ZTSSs"} ; [ DW_TAG_typedef ] [value_type] [line 222, size 0, align 0, offset 0] [from _ZTSSs]
!59 = metadata !{i32 786478, metadata !33, metadata !"_ZTSSt6vectorISsSaISsEE", metadata !"vector", metadata !"vector", metadata !"", i32 310, metadata !60, i1 false, i1 false, i32 0, i32 0, null, i32 256, i1 false, null, null, i32 0, metadata !30, i32 3
!60 = metadata !{i32 786453, i32 0, null, metadata !"", i32 0, i64 0, i64 0, i64 0, i32 0, null, metadata !61, i32 0, null, null, null} ; [ DW_TAG_subroutine_type ] [line 0, size 0, align 0, offset 0] [from ]
!61 = metadata !{null, metadata !39, metadata !62}
!62 = metadata !{i32 786448, null, null, null, i32 0, i64 0, i64 0, i64 0, i32 0, metadata !63} ; [ DW_TAG_reference_type ] [line 0, size 0, align 0, offset 0] [from ]
!63 = metadata !{i32 786470, null, null, metadata !"", i32 0, i64 0, i64 0, i64 0, i32 0, metadata !"_ZTSSt6vectorISsSaISsEE"} ; [ DW_TAG_const_type ] [line 0, size 0, align 0, offset 0] [from _ZTSSt6vectorISsSaISsEE]
!64 = metadata !{i32 786478, metadata !33, metadata !"_ZTSSt6vectorISsSaISsEE", metadata !"vector", metadata !"vector", metadata !"", i32 327, metadata !65, i1 false, i1 false, i32 0, i32 0, null, i32 256, i1 false, null, null, i32 0, metadata !30, i32 3
!65 = metadata !{i32 786453, i32 0, null, metadata !"", i32 0, i64 0, i64 0, i64 0, i32 0, null, metadata !66, i32 0, null, null, null} ; [ DW_TAG_subroutine_type ] [line 0, size 0, align 0, offset 0] [from ]
!66 = metadata !{null, metadata !39, metadata !67}
!67 = metadata !{i32 786498, null, null, null, i32 0, i64 0, i64 0, i64 0, i32 0, metadata !"_ZTSSt6vectorISsSaISsEE"} ; [ DW_TAG_rvalue_reference_type ] [line 0, size 0, align 0, offset 0] [from _ZTSSt6vectorISsSaISsEE]
!68 = metadata !{i32 786478, metadata !33, metadata !"_ZTSSt6vectorISsSaISsEE", metadata !"vector", metadata !"vector", metadata !"", i32 331, metadata !69, i1 false, i1 false, i32 0, i32 0, null, i32 256, i1 false, null, null, i32 0, metadata !30, i32 3
!69 = metadata !{i32 786453, i32 0, null, metadata !"", i32 0, i64 0, i64 0, i64 0, i32 0, null, metadata !70, i32 0, null, null, null} ; [ DW_TAG_subroutine_type ] [line 0, size 0, align 0, offset 0] [from ]
!70 = metadata !{null, metadata !39, metadata !62, metadata !43}
!71 = metadata !{i32 786478, metadata !33, metadata !"_ZTSSt6vectorISsSaISsEE", metadata !"vector", metadata !"vector", metadata !"", i32 340, metadata !72, i1 false, i1 false, i32 0, i32 0, null, i32 256, i1 false, null, null, i32 0, metadata !30, i32 3
!72 = metadata !{i32 786453, i32 0, null, metadata !"", i32 0, i64 0, i64 0, i64 0, i32 0, null, metadata !73, i32 0, null, null, null} ; [ DW_TAG_subroutine_type ] [line 0, size 0, align 0, offset 0] [from ]
!73 = metadata !{null, metadata !39, metadata !67, metadata !43}
!74 = metadata !{i32 786478, metadata !33, metadata !"_ZTSSt6vectorISsSaISsEE", metadata !"vector", metadata !"vector", metadata !"", i32 364, metadata !75, i1 false, i1 false, i32 0, i32 0, null, i32 256, i1 false, null, null, i32 0, metadata !30, i32 3
!75 = metadata !{i32 786453, i32 0, null, metadata !"", i32 0, i64 0, i64 0, i64 0, i32 0, null, metadata !76, i32 0, null, null, null} ; [ DW_TAG_subroutine_type ] [line 0, size 0, align 0, offset 0] [from ]
!76 = metadata !{null, metadata !39, metadata !77, metadata !43}
!77 = metadata !{i32 786434, metadata !78, metadata !5, metadata !"initializer_list<std::basic_string<char> >", i32 47, i64 0, i64 0, i32 0, i32 4, null, null, i32 0, null, null, metadata !"_ZTSSt16initializer_listISsE"} ; [ DW_TAG_class_type ] [initiali
!78 = metadata !{metadata !"/usr/bin/../lib/gcc/x86_64-linux-gnu/4.8/../../../../include/c++/4.8/initializer_list", metadata !"/home/klee/ST/commission"}
!79 = metadata !{i32 786478, metadata !33, metadata !"_ZTSSt6vectorISsSaISsEE", metadata !"~vector", metadata !"~vector", metadata !"", i32 414, metadata !37, i1 false, i1 false, i32 0, i32 0, null, i32 256, i1 false, null, null, i32 0, metadata !30, i32
!80 = metadata !{i32 786478, metadata !33, metadata !"_ZTSSt6vectorISsSaISsEE", metadata !"operator=", metadata !"operator=", metadata !"_ZNSt6vectorISsSaISsEEaSERKS1_", i32 427, metadata !81, i1 false, i1 false, i32 0, i32 0, null, i32 256, i1 false, nu
!81 = metadata !{i32 786453, i32 0, null, metadata !"", i32 0, i64 0, i64 0, i64 0, i32 0, null, metadata !82, i32 0, null, null, null} ; [ DW_TAG_subroutine_type ] [line 0, size 0, align 0, offset 0] [from ]
!82 = metadata !{metadata !83, metadata !39, metadata !62}
!83 = metadata !{i32 786448, null, null, null, i32 0, i64 0, i64 0, i64 0, i32 0, metadata !"_ZTSSt6vectorISsSaISsEE"} ; [ DW_TAG_reference_type ] [line 0, size 0, align 0, offset 0] [from _ZTSSt6vectorISsSaISsEE]
!84 = metadata !{i32 786478, metadata !33, metadata !"_ZTSSt6vectorISsSaISsEE", metadata !"operator=", metadata !"operator=", metadata !"_ZNSt6vectorISsSaISsEEaSEOS1_", i32 439, metadata !85, i1 false, i1 false, i32 0, i32 0, null, i32 256, i1 false, nul
!85 = metadata !{i32 786453, i32 0, null, metadata !"", i32 0, i64 0, i64 0, i64 0, i32 0, null, metadata !86, i32 0, null, null, null} ; [ DW_TAG_subroutine_type ] [line 0, size 0, align 0, offset 0] [from ]
!86 = metadata !{metadata !83, metadata !39, metadata !67}
!87 = metadata !{i32 786478, metadata !33, metadata !"_ZTSSt6vectorISsSaISsEE", metadata !"operator=", metadata !"operator=", metadata !"_ZNSt6vectorISsSaISsEEaSESt16initializer_listISsE", i32 461, metadata !88, i1 false, i1 false, i32 0, i32 0, null, i3
!88 = metadata !{i32 786453, i32 0, null, metadata !"", i32 0, i64 0, i64 0, i64 0, i32 0, null, metadata !89, i32 0, null, null, null} ; [ DW_TAG_subroutine_type ] [line 0, size 0, align 0, offset 0] [from ]
!89 = metadata !{metadata !83, metadata !39, metadata !77}
!90 = metadata !{i32 786478, metadata !33, metadata !"_ZTSSt6vectorISsSaISsEE", metadata !"assign", metadata !"assign", metadata !"_ZNSt6vectorISsSaISsEE6assignEmRKSs", i32 479, metadata !91, i1 false, i1 false, i32 0, i32 0, null, i32 256, i1 false, nul
!91 = metadata !{i32 786453, i32 0, null, metadata !"", i32 0, i64 0, i64 0, i64 0, i32 0, null, metadata !92, i32 0, null, null, null} ; [ DW_TAG_subroutine_type ] [line 0, size 0, align 0, offset 0] [from ]
!92 = metadata !{null, metadata !39, metadata !49, metadata !56}
!93 = metadata !{i32 786478, metadata !33, metadata !"_ZTSSt6vectorISsSaISsEE", metadata !"assign", metadata !"assign", metadata !"_ZNSt6vectorISsSaISsEE6assignESt16initializer_listISsE", i32 524, metadata !94, i1 false, i1 false, i32 0, i32 0, null, i32
!94 = metadata !{i32 786453, i32 0, null, metadata !"", i32 0, i64 0, i64 0, i64 0, i32 0, null, metadata !95, i32 0, null, null, null} ; [ DW_TAG_subroutine_type ] [line 0, size 0, align 0, offset 0] [from ]
!95 = metadata !{null, metadata !39, metadata !77}
!96 = metadata !{i32 786478, metadata !33, metadata !"_ZTSSt6vectorISsSaISsEE", metadata !"begin", metadata !"begin", metadata !"_ZNSt6vectorISsSaISsEE5beginEv", i32 538, metadata !97, i1 false, i1 false, i32 0, i32 0, null, i32 256, i1 false, null, null
!97 = metadata !{i32 786453, i32 0, null, metadata !"", i32 0, i64 0, i64 0, i64 0, i32 0, null, metadata !98, i32 0, null, null, null} ; [ DW_TAG_subroutine_type ] [line 0, size 0, align 0, offset 0] [from ]
!98 = metadata !{metadata !99, metadata !39}
!99 = metadata !{i32 786454, metadata !33, metadata !"_ZTSSt6vectorISsSaISsEE", metadata !"iterator", i32 227, i64 0, i64 0, i64 0, i32 0, metadata !"_ZTSN9__gnu_cxx17__normal_iteratorIPSsSt6vectorISsSaISsEEEE"} ; [ DW_TAG_typedef ] [iterator] [line 227,
!100 = metadata !{i32 786478, metadata !33, metadata !"_ZTSSt6vectorISsSaISsEE", metadata !"begin", metadata !"begin", metadata !"_ZNKSt6vectorISsSaISsEE5beginEv", i32 547, metadata !101, i1 false, i1 false, i32 0, i32 0, null, i32 256, i1 false, null, n
!101 = metadata !{i32 786453, i32 0, null, metadata !"", i32 0, i64 0, i64 0, i64 0, i32 0, null, metadata !102, i32 0, null, null, null} ; [ DW_TAG_subroutine_type ] [line 0, size 0, align 0, offset 0] [from ]
!102 = metadata !{metadata !103, metadata !104}
!103 = metadata !{i32 786454, metadata !33, metadata !"_ZTSSt6vectorISsSaISsEE", metadata !"const_iterator", i32 229, i64 0, i64 0, i64 0, i32 0, metadata !"_ZTSN9__gnu_cxx17__normal_iteratorIPKSsSt6vectorISsSaISsEEEE"} ; [ DW_TAG_typedef ] [const_iterat
!104 = metadata !{i32 786447, null, null, metadata !"", i32 0, i64 64, i64 64, i64 0, i32 1088, metadata !63} ; [ DW_TAG_pointer_type ] [line 0, size 64, align 64, offset 0] [artificial] [from ]
!105 = metadata !{i32 786478, metadata !33, metadata !"_ZTSSt6vectorISsSaISsEE", metadata !"end", metadata !"end", metadata !"_ZNSt6vectorISsSaISsEE3endEv", i32 556, metadata !97, i1 false, i1 false, i32 0, i32 0, null, i32 256, i1 false, null, null, i32
!106 = metadata !{i32 786478, metadata !33, metadata !"_ZTSSt6vectorISsSaISsEE", metadata !"end", metadata !"end", metadata !"_ZNKSt6vectorISsSaISsEE3endEv", i32 565, metadata !101, i1 false, i1 false, i32 0, i32 0, null, i32 256, i1 false, null, null, i
!107 = metadata !{i32 786478, metadata !33, metadata !"_ZTSSt6vectorISsSaISsEE", metadata !"rbegin", metadata !"rbegin", metadata !"_ZNSt6vectorISsSaISsEE6rbeginEv", i32 574, metadata !108, i1 false, i1 false, i32 0, i32 0, null, i32 256, i1 false, null,
!108 = metadata !{i32 786453, i32 0, null, metadata !"", i32 0, i64 0, i64 0, i64 0, i32 0, null, metadata !109, i32 0, null, null, null} ; [ DW_TAG_subroutine_type ] [line 0, size 0, align 0, offset 0] [from ]
!109 = metadata !{metadata !110, metadata !39}
!110 = metadata !{i32 786454, metadata !33, metadata !"_ZTSSt6vectorISsSaISsEE", metadata !"reverse_iterator", i32 231, i64 0, i64 0, i64 0, i32 0, metadata !"_ZTSSt16reverse_iteratorIN9__gnu_cxx17__normal_iteratorIPSsSt6vectorISsSaISsEEEEE"} ; [ DW_TAG_
!111 = metadata !{i32 786478, metadata !33, metadata !"_ZTSSt6vectorISsSaISsEE", metadata !"rbegin", metadata !"rbegin", metadata !"_ZNKSt6vectorISsSaISsEE6rbeginEv", i32 583, metadata !112, i1 false, i1 false, i32 0, i32 0, null, i32 256, i1 false, null
!112 = metadata !{i32 786453, i32 0, null, metadata !"", i32 0, i64 0, i64 0, i64 0, i32 0, null, metadata !113, i32 0, null, null, null} ; [ DW_TAG_subroutine_type ] [line 0, size 0, align 0, offset 0] [from ]
!113 = metadata !{metadata !114, metadata !104}
!114 = metadata !{i32 786454, metadata !33, metadata !"_ZTSSt6vectorISsSaISsEE", metadata !"const_reverse_iterator", i32 230, i64 0, i64 0, i64 0, i32 0, metadata !"_ZTSSt16reverse_iteratorIN9__gnu_cxx17__normal_iteratorIPKSsSt6vectorISsSaISsEEEEE"} ; [ 
!115 = metadata !{i32 786478, metadata !33, metadata !"_ZTSSt6vectorISsSaISsEE", metadata !"rend", metadata !"rend", metadata !"_ZNSt6vectorISsSaISsEE4rendEv", i32 592, metadata !108, i1 false, i1 false, i32 0, i32 0, null, i32 256, i1 false, null, null,
!116 = metadata !{i32 786478, metadata !33, metadata !"_ZTSSt6vectorISsSaISsEE", metadata !"rend", metadata !"rend", metadata !"_ZNKSt6vectorISsSaISsEE4rendEv", i32 601, metadata !112, i1 false, i1 false, i32 0, i32 0, null, i32 256, i1 false, null, null
!117 = metadata !{i32 786478, metadata !33, metadata !"_ZTSSt6vectorISsSaISsEE", metadata !"cbegin", metadata !"cbegin", metadata !"_ZNKSt6vectorISsSaISsEE6cbeginEv", i32 611, metadata !101, i1 false, i1 false, i32 0, i32 0, null, i32 256, i1 false, null
!118 = metadata !{i32 786478, metadata !33, metadata !"_ZTSSt6vectorISsSaISsEE", metadata !"cend", metadata !"cend", metadata !"_ZNKSt6vectorISsSaISsEE4cendEv", i32 620, metadata !101, i1 false, i1 false, i32 0, i32 0, null, i32 256, i1 false, null, null
!119 = metadata !{i32 786478, metadata !33, metadata !"_ZTSSt6vectorISsSaISsEE", metadata !"crbegin", metadata !"crbegin", metadata !"_ZNKSt6vectorISsSaISsEE7crbeginEv", i32 629, metadata !112, i1 false, i1 false, i32 0, i32 0, null, i32 256, i1 false, n
!120 = metadata !{i32 786478, metadata !33, metadata !"_ZTSSt6vectorISsSaISsEE", metadata !"crend", metadata !"crend", metadata !"_ZNKSt6vectorISsSaISsEE5crendEv", i32 638, metadata !112, i1 false, i1 false, i32 0, i32 0, null, i32 256, i1 false, null, n
!121 = metadata !{i32 786478, metadata !33, metadata !"_ZTSSt6vectorISsSaISsEE", metadata !"size", metadata !"size", metadata !"_ZNKSt6vectorISsSaISsEE4sizeEv", i32 645, metadata !122, i1 false, i1 false, i32 0, i32 0, null, i32 256, i1 false, null, null
!122 = metadata !{i32 786453, i32 0, null, metadata !"", i32 0, i64 0, i64 0, i64 0, i32 0, null, metadata !123, i32 0, null, null, null} ; [ DW_TAG_subroutine_type ] [line 0, size 0, align 0, offset 0] [from ]
!123 = metadata !{metadata !49, metadata !104}
!124 = metadata !{i32 786478, metadata !33, metadata !"_ZTSSt6vectorISsSaISsEE", metadata !"max_size", metadata !"max_size", metadata !"_ZNKSt6vectorISsSaISsEE8max_sizeEv", i32 650, metadata !122, i1 false, i1 false, i32 0, i32 0, null, i32 256, i1 false
!125 = metadata !{i32 786478, metadata !33, metadata !"_ZTSSt6vectorISsSaISsEE", metadata !"resize", metadata !"resize", metadata !"_ZNSt6vectorISsSaISsEE6resizeEm", i32 664, metadata !126, i1 false, i1 false, i32 0, i32 0, null, i32 256, i1 false, null,
!126 = metadata !{i32 786453, i32 0, null, metadata !"", i32 0, i64 0, i64 0, i64 0, i32 0, null, metadata !127, i32 0, null, null, null} ; [ DW_TAG_subroutine_type ] [line 0, size 0, align 0, offset 0] [from ]
!127 = metadata !{null, metadata !39, metadata !49}
!128 = metadata !{i32 786478, metadata !33, metadata !"_ZTSSt6vectorISsSaISsEE", metadata !"resize", metadata !"resize", metadata !"_ZNSt6vectorISsSaISsEE6resizeEmRKSs", i32 684, metadata !91, i1 false, i1 false, i32 0, i32 0, null, i32 256, i1 false, nu
!129 = metadata !{i32 786478, metadata !33, metadata !"_ZTSSt6vectorISsSaISsEE", metadata !"shrink_to_fit", metadata !"shrink_to_fit", metadata !"_ZNSt6vectorISsSaISsEE13shrink_to_fitEv", i32 716, metadata !37, i1 false, i1 false, i32 0, i32 0, null, i32
!130 = metadata !{i32 786478, metadata !33, metadata !"_ZTSSt6vectorISsSaISsEE", metadata !"capacity", metadata !"capacity", metadata !"_ZNKSt6vectorISsSaISsEE8capacityEv", i32 725, metadata !122, i1 false, i1 false, i32 0, i32 0, null, i32 256, i1 false
!131 = metadata !{i32 786478, metadata !33, metadata !"_ZTSSt6vectorISsSaISsEE", metadata !"empty", metadata !"empty", metadata !"_ZNKSt6vectorISsSaISsEE5emptyEv", i32 734, metadata !132, i1 false, i1 false, i32 0, i32 0, null, i32 256, i1 false, null, n
!132 = metadata !{i32 786453, i32 0, null, metadata !"", i32 0, i64 0, i64 0, i64 0, i32 0, null, metadata !133, i32 0, null, null, null} ; [ DW_TAG_subroutine_type ] [line 0, size 0, align 0, offset 0] [from ]
!133 = metadata !{metadata !25, metadata !104}
!134 = metadata !{i32 786478, metadata !33, metadata !"_ZTSSt6vectorISsSaISsEE", metadata !"reserve", metadata !"reserve", metadata !"_ZNSt6vectorISsSaISsEE7reserveEm", i32 755, metadata !126, i1 false, i1 false, i32 0, i32 0, null, i32 256, i1 false, nu
!135 = metadata !{i32 786478, metadata !33, metadata !"_ZTSSt6vectorISsSaISsEE", metadata !"operator[]", metadata !"operator[]", metadata !"_ZNSt6vectorISsSaISsEEixEm", i32 770, metadata !136, i1 false, i1 false, i32 0, i32 0, null, i32 256, i1 false, nu
!136 = metadata !{i32 786453, i32 0, null, metadata !"", i32 0, i64 0, i64 0, i64 0, i32 0, null, metadata !137, i32 0, null, null, null} ; [ DW_TAG_subroutine_type ] [line 0, size 0, align 0, offset 0] [from ]
!137 = metadata !{metadata !138, metadata !39, metadata !49}
!138 = metadata !{i32 786454, metadata !33, metadata !"_ZTSSt6vectorISsSaISsEE", metadata !"reference", i32 225, i64 0, i64 0, i64 0, i32 0, metadata !139} ; [ DW_TAG_typedef ] [reference] [line 225, size 0, align 0, offset 0] [from reference]
!139 = metadata !{i32 786454, metadata !33, metadata !"_ZTSN9__gnu_cxx14__alloc_traitsISaISsEEE", metadata !"reference", i32 135, i64 0, i64 0, i64 0, i32 0, metadata !140} ; [ DW_TAG_typedef ] [reference] [line 135, size 0, align 0, offset 0] [from ]
!140 = metadata !{i32 786448, null, null, null, i32 0, i64 0, i64 0, i64 0, i32 0, metadata !141} ; [ DW_TAG_reference_type ] [line 0, size 0, align 0, offset 0] [from value_type]
!141 = metadata !{i32 786454, metadata !33, metadata !"_ZTSN9__gnu_cxx14__alloc_traitsISaISsEEE", metadata !"value_type", i32 129, i64 0, i64 0, i64 0, i32 0, metadata !142} ; [ DW_TAG_typedef ] [value_type] [line 129, size 0, align 0, offset 0] [from va
!142 = metadata !{i32 786454, metadata !143, metadata !"_ZTSSt16allocator_traitsISaISsEE", metadata !"value_type", i32 90, i64 0, i64 0, i64 0, i32 0, metadata !144} ; [ DW_TAG_typedef ] [value_type] [line 90, size 0, align 0, offset 0] [from value_type]
!143 = metadata !{metadata !"/usr/bin/../lib/gcc/x86_64-linux-gnu/4.8/../../../../include/c++/4.8/bits/alloc_traits.h", metadata !"/home/klee/ST/commission"}
!144 = metadata !{i32 786454, metadata !143, metadata !"_ZTSSaISsE", metadata !"value_type", i32 101, i64 0, i64 0, i64 0, i32 0, metadata !"_ZTSSs"} ; [ DW_TAG_typedef ] [value_type] [line 101, size 0, align 0, offset 0] [from _ZTSSs]
!145 = metadata !{i32 786478, metadata !33, metadata !"_ZTSSt6vectorISsSaISsEE", metadata !"operator[]", metadata !"operator[]", metadata !"_ZNKSt6vectorISsSaISsEEixEm", i32 785, metadata !146, i1 false, i1 false, i32 0, i32 0, null, i32 256, i1 false, n
!146 = metadata !{i32 786453, i32 0, null, metadata !"", i32 0, i64 0, i64 0, i64 0, i32 0, null, metadata !147, i32 0, null, null, null} ; [ DW_TAG_subroutine_type ] [line 0, size 0, align 0, offset 0] [from ]
!147 = metadata !{metadata !148, metadata !104, metadata !49}
!148 = metadata !{i32 786454, metadata !33, metadata !"_ZTSSt6vectorISsSaISsEE", metadata !"const_reference", i32 226, i64 0, i64 0, i64 0, i32 0, metadata !149} ; [ DW_TAG_typedef ] [const_reference] [line 226, size 0, align 0, offset 0] [from const_ref
!149 = metadata !{i32 786454, metadata !33, metadata !"_ZTSN9__gnu_cxx14__alloc_traitsISaISsEEE", metadata !"const_reference", i32 136, i64 0, i64 0, i64 0, i32 0, metadata !150} ; [ DW_TAG_typedef ] [const_reference] [line 136, size 0, align 0, offset 0
!150 = metadata !{i32 786448, null, null, null, i32 0, i64 0, i64 0, i64 0, i32 0, metadata !151} ; [ DW_TAG_reference_type ] [line 0, size 0, align 0, offset 0] [from ]
!151 = metadata !{i32 786470, null, null, metadata !"", i32 0, i64 0, i64 0, i64 0, i32 0, metadata !141} ; [ DW_TAG_const_type ] [line 0, size 0, align 0, offset 0] [from value_type]
!152 = metadata !{i32 786478, metadata !33, metadata !"_ZTSSt6vectorISsSaISsEE", metadata !"_M_range_check", metadata !"_M_range_check", metadata !"_ZNKSt6vectorISsSaISsEE14_M_range_checkEm", i32 791, metadata !153, i1 false, i1 false, i32 0, i32 0, null
!153 = metadata !{i32 786453, i32 0, null, metadata !"", i32 0, i64 0, i64 0, i64 0, i32 0, null, metadata !154, i32 0, null, null, null} ; [ DW_TAG_subroutine_type ] [line 0, size 0, align 0, offset 0] [from ]
!154 = metadata !{null, metadata !104, metadata !49}
!155 = metadata !{i32 786478, metadata !33, metadata !"_ZTSSt6vectorISsSaISsEE", metadata !"at", metadata !"at", metadata !"_ZNSt6vectorISsSaISsEE2atEm", i32 810, metadata !136, i1 false, i1 false, i32 0, i32 0, null, i32 256, i1 false, null, null, i32 0
!156 = metadata !{i32 786478, metadata !33, metadata !"_ZTSSt6vectorISsSaISsEE", metadata !"at", metadata !"at", metadata !"_ZNKSt6vectorISsSaISsEE2atEm", i32 828, metadata !146, i1 false, i1 false, i32 0, i32 0, null, i32 256, i1 false, null, null, i32 
!157 = metadata !{i32 786478, metadata !33, metadata !"_ZTSSt6vectorISsSaISsEE", metadata !"front", metadata !"front", metadata !"_ZNSt6vectorISsSaISsEE5frontEv", i32 839, metadata !158, i1 false, i1 false, i32 0, i32 0, null, i32 256, i1 false, null, nu
!158 = metadata !{i32 786453, i32 0, null, metadata !"", i32 0, i64 0, i64 0, i64 0, i32 0, null, metadata !159, i32 0, null, null, null} ; [ DW_TAG_subroutine_type ] [line 0, size 0, align 0, offset 0] [from ]
!159 = metadata !{metadata !138, metadata !39}
!160 = metadata !{i32 786478, metadata !33, metadata !"_ZTSSt6vectorISsSaISsEE", metadata !"front", metadata !"front", metadata !"_ZNKSt6vectorISsSaISsEE5frontEv", i32 847, metadata !161, i1 false, i1 false, i32 0, i32 0, null, i32 256, i1 false, null, n
!161 = metadata !{i32 786453, i32 0, null, metadata !"", i32 0, i64 0, i64 0, i64 0, i32 0, null, metadata !162, i32 0, null, null, null} ; [ DW_TAG_subroutine_type ] [line 0, size 0, align 0, offset 0] [from ]
!162 = metadata !{metadata !148, metadata !104}
!163 = metadata !{i32 786478, metadata !33, metadata !"_ZTSSt6vectorISsSaISsEE", metadata !"back", metadata !"back", metadata !"_ZNSt6vectorISsSaISsEE4backEv", i32 855, metadata !158, i1 false, i1 false, i32 0, i32 0, null, i32 256, i1 false, null, null,
!164 = metadata !{i32 786478, metadata !33, metadata !"_ZTSSt6vectorISsSaISsEE", metadata !"back", metadata !"back", metadata !"_ZNKSt6vectorISsSaISsEE4backEv", i32 863, metadata !161, i1 false, i1 false, i32 0, i32 0, null, i32 256, i1 false, null, null
!165 = metadata !{i32 786478, metadata !33, metadata !"_ZTSSt6vectorISsSaISsEE", metadata !"data", metadata !"data", metadata !"_ZNSt6vectorISsSaISsEE4dataEv", i32 878, metadata !166, i1 false, i1 false, i32 0, i32 0, null, i32 256, i1 false, null, null,
!166 = metadata !{i32 786453, i32 0, null, metadata !"", i32 0, i64 0, i64 0, i64 0, i32 0, null, metadata !167, i32 0, null, null, null} ; [ DW_TAG_subroutine_type ] [line 0, size 0, align 0, offset 0] [from ]
!167 = metadata !{metadata !168, metadata !39}
!168 = metadata !{i32 786447, null, null, metadata !"", i32 0, i64 64, i64 64, i64 0, i32 0, metadata !"_ZTSSs"} ; [ DW_TAG_pointer_type ] [line 0, size 64, align 64, offset 0] [from _ZTSSs]
!169 = metadata !{i32 786478, metadata !33, metadata !"_ZTSSt6vectorISsSaISsEE", metadata !"data", metadata !"data", metadata !"_ZNKSt6vectorISsSaISsEE4dataEv", i32 886, metadata !170, i1 false, i1 false, i32 0, i32 0, null, i32 256, i1 false, null, null
!170 = metadata !{i32 786453, i32 0, null, metadata !"", i32 0, i64 0, i64 0, i64 0, i32 0, null, metadata !171, i32 0, null, null, null} ; [ DW_TAG_subroutine_type ] [line 0, size 0, align 0, offset 0] [from ]
!171 = metadata !{metadata !172, metadata !104}
!172 = metadata !{i32 786447, null, null, metadata !"", i32 0, i64 64, i64 64, i64 0, i32 0, metadata !173} ; [ DW_TAG_pointer_type ] [line 0, size 64, align 64, offset 0] [from ]
!173 = metadata !{i32 786470, null, null, metadata !"", i32 0, i64 0, i64 0, i64 0, i32 0, metadata !"_ZTSSs"} ; [ DW_TAG_const_type ] [line 0, size 0, align 0, offset 0] [from _ZTSSs]
!174 = metadata !{i32 786478, metadata !33, metadata !"_ZTSSt6vectorISsSaISsEE", metadata !"push_back", metadata !"push_back", metadata !"_ZNSt6vectorISsSaISsEE9push_backERKSs", i32 901, metadata !175, i1 false, i1 false, i32 0, i32 0, null, i32 256, i1 
!175 = metadata !{i32 786453, i32 0, null, metadata !"", i32 0, i64 0, i64 0, i64 0, i32 0, null, metadata !176, i32 0, null, null, null} ; [ DW_TAG_subroutine_type ] [line 0, size 0, align 0, offset 0] [from ]
!176 = metadata !{null, metadata !39, metadata !56}
!177 = metadata !{i32 786478, metadata !33, metadata !"_ZTSSt6vectorISsSaISsEE", metadata !"push_back", metadata !"push_back", metadata !"_ZNSt6vectorISsSaISsEE9push_backEOSs", i32 919, metadata !178, i1 false, i1 false, i32 0, i32 0, null, i32 256, i1 f
!178 = metadata !{i32 786453, i32 0, null, metadata !"", i32 0, i64 0, i64 0, i64 0, i32 0, null, metadata !179, i32 0, null, null, null} ; [ DW_TAG_subroutine_type ] [line 0, size 0, align 0, offset 0] [from ]
!179 = metadata !{null, metadata !39, metadata !180}
!180 = metadata !{i32 786498, null, null, null, i32 0, i64 0, i64 0, i64 0, i32 0, metadata !58} ; [ DW_TAG_rvalue_reference_type ] [line 0, size 0, align 0, offset 0] [from value_type]
!181 = metadata !{i32 786478, metadata !33, metadata !"_ZTSSt6vectorISsSaISsEE", metadata !"pop_back", metadata !"pop_back", metadata !"_ZNSt6vectorISsSaISsEE8pop_backEv", i32 937, metadata !37, i1 false, i1 false, i32 0, i32 0, null, i32 256, i1 false, 
!182 = metadata !{i32 786478, metadata !33, metadata !"_ZTSSt6vectorISsSaISsEE", metadata !"insert", metadata !"insert", metadata !"_ZNSt6vectorISsSaISsEE6insertEN9__gnu_cxx17__normal_iteratorIPSsS1_EERKSs", i32 973, metadata !183, i1 false, i1 false, i3
!183 = metadata !{i32 786453, i32 0, null, metadata !"", i32 0, i64 0, i64 0, i64 0, i32 0, null, metadata !184, i32 0, null, null, null} ; [ DW_TAG_subroutine_type ] [line 0, size 0, align 0, offset 0] [from ]
!184 = metadata !{metadata !99, metadata !39, metadata !99, metadata !56}
!185 = metadata !{i32 786478, metadata !33, metadata !"_ZTSSt6vectorISsSaISsEE", metadata !"insert", metadata !"insert", metadata !"_ZNSt6vectorISsSaISsEE6insertEN9__gnu_cxx17__normal_iteratorIPSsS1_EEOSs", i32 988, metadata !186, i1 false, i1 false, i32
!186 = metadata !{i32 786453, i32 0, null, metadata !"", i32 0, i64 0, i64 0, i64 0, i32 0, null, metadata !187, i32 0, null, null, null} ; [ DW_TAG_subroutine_type ] [line 0, size 0, align 0, offset 0] [from ]
!187 = metadata !{metadata !99, metadata !39, metadata !99, metadata !180}
!188 = metadata !{i32 786478, metadata !33, metadata !"_ZTSSt6vectorISsSaISsEE", metadata !"insert", metadata !"insert", metadata !"_ZNSt6vectorISsSaISsEE6insertEN9__gnu_cxx17__normal_iteratorIPSsS1_EESt16initializer_listISsE", i32 1005, metadata !189, i
!189 = metadata !{i32 786453, i32 0, null, metadata !"", i32 0, i64 0, i64 0, i64 0, i32 0, null, metadata !190, i32 0, null, null, null} ; [ DW_TAG_subroutine_type ] [line 0, size 0, align 0, offset 0] [from ]
!190 = metadata !{null, metadata !39, metadata !99, metadata !77}
!191 = metadata !{i32 786478, metadata !33, metadata !"_ZTSSt6vectorISsSaISsEE", metadata !"insert", metadata !"insert", metadata !"_ZNSt6vectorISsSaISsEE6insertEN9__gnu_cxx17__normal_iteratorIPSsS1_EEmRKSs", i32 1023, metadata !192, i1 false, i1 false, 
!192 = metadata !{i32 786453, i32 0, null, metadata !"", i32 0, i64 0, i64 0, i64 0, i32 0, null, metadata !193, i32 0, null, null, null} ; [ DW_TAG_subroutine_type ] [line 0, size 0, align 0, offset 0] [from ]
!193 = metadata !{null, metadata !39, metadata !99, metadata !49, metadata !56}
!194 = metadata !{i32 786478, metadata !33, metadata !"_ZTSSt6vectorISsSaISsEE", metadata !"erase", metadata !"erase", metadata !"_ZNSt6vectorISsSaISsEE5eraseEN9__gnu_cxx17__normal_iteratorIPSsS1_EE", i32 1075, metadata !195, i1 false, i1 false, i32 0, i
!195 = metadata !{i32 786453, i32 0, null, metadata !"", i32 0, i64 0, i64 0, i64 0, i32 0, null, metadata !196, i32 0, null, null, null} ; [ DW_TAG_subroutine_type ] [line 0, size 0, align 0, offset 0] [from ]
!196 = metadata !{metadata !99, metadata !39, metadata !99}
!197 = metadata !{i32 786478, metadata !33, metadata !"_ZTSSt6vectorISsSaISsEE", metadata !"erase", metadata !"erase", metadata !"_ZNSt6vectorISsSaISsEE5eraseEN9__gnu_cxx17__normal_iteratorIPSsS1_EES5_", i32 1096, metadata !198, i1 false, i1 false, i32 0
!198 = metadata !{i32 786453, i32 0, null, metadata !"", i32 0, i64 0, i64 0, i64 0, i32 0, null, metadata !199, i32 0, null, null, null} ; [ DW_TAG_subroutine_type ] [line 0, size 0, align 0, offset 0] [from ]
!199 = metadata !{metadata !99, metadata !39, metadata !99, metadata !99}
!200 = metadata !{i32 786478, metadata !33, metadata !"_ZTSSt6vectorISsSaISsEE", metadata !"swap", metadata !"swap", metadata !"_ZNSt6vectorISsSaISsEE4swapERS1_", i32 1108, metadata !201, i1 false, i1 false, i32 0, i32 0, null, i32 256, i1 false, null, n
!201 = metadata !{i32 786453, i32 0, null, metadata !"", i32 0, i64 0, i64 0, i64 0, i32 0, null, metadata !202, i32 0, null, null, null} ; [ DW_TAG_subroutine_type ] [line 0, size 0, align 0, offset 0] [from ]
!202 = metadata !{null, metadata !39, metadata !83}
!203 = metadata !{i32 786478, metadata !33, metadata !"_ZTSSt6vectorISsSaISsEE", metadata !"clear", metadata !"clear", metadata !"_ZNSt6vectorISsSaISsEE5clearEv", i32 1125, metadata !37, i1 false, i1 false, i32 0, i32 0, null, i32 256, i1 false, null, nu
!204 = metadata !{i32 786478, metadata !33, metadata !"_ZTSSt6vectorISsSaISsEE", metadata !"_M_fill_initialize", metadata !"_M_fill_initialize", metadata !"_ZNSt6vectorISsSaISsEE18_M_fill_initializeEmRKSs", i32 1212, metadata !91, i1 false, i1 false, i32
!205 = metadata !{i32 786478, metadata !33, metadata !"_ZTSSt6vectorISsSaISsEE", metadata !"_M_default_initialize", metadata !"_M_default_initialize", metadata !"_ZNSt6vectorISsSaISsEE21_M_default_initializeEm", i32 1222, metadata !126, i1 false, i1 fals
!206 = metadata !{i32 786478, metadata !33, metadata !"_ZTSSt6vectorISsSaISsEE", metadata !"_M_fill_assign", metadata !"_M_fill_assign", metadata !"_ZNSt6vectorISsSaISsEE14_M_fill_assignEmRKSs", i32 1268, metadata !91, i1 false, i1 false, i32 0, i32 0, n
!207 = metadata !{i32 786478, metadata !33, metadata !"_ZTSSt6vectorISsSaISsEE", metadata !"_M_fill_insert", metadata !"_M_fill_insert", metadata !"_ZNSt6vectorISsSaISsEE14_M_fill_insertEN9__gnu_cxx17__normal_iteratorIPSsS1_EEmRKSs", i32 1309, metadata !
!208 = metadata !{i32 786478, metadata !33, metadata !"_ZTSSt6vectorISsSaISsEE", metadata !"_M_default_append", metadata !"_M_default_append", metadata !"_ZNSt6vectorISsSaISsEE17_M_default_appendEm", i32 1314, metadata !126, i1 false, i1 false, i32 0, i3
!209 = metadata !{i32 786478, metadata !33, metadata !"_ZTSSt6vectorISsSaISsEE", metadata !"_M_shrink_to_fit", metadata !"_M_shrink_to_fit", metadata !"_ZNSt6vectorISsSaISsEE16_M_shrink_to_fitEv", i32 1317, metadata !210, i1 false, i1 false, i32 0, i32 0
!210 = metadata !{i32 786453, i32 0, null, metadata !"", i32 0, i64 0, i64 0, i64 0, i32 0, null, metadata !211, i32 0, null, null, null} ; [ DW_TAG_subroutine_type ] [line 0, size 0, align 0, offset 0] [from ]
!211 = metadata !{metadata !25, metadata !39}
!212 = metadata !{i32 786478, metadata !33, metadata !"_ZTSSt6vectorISsSaISsEE", metadata !"_M_check_len", metadata !"_M_check_len", metadata !"_ZNKSt6vectorISsSaISsEE12_M_check_lenEmPKc", i32 1336, metadata !213, i1 false, i1 false, i32 0, i32 0, null, 
!213 = metadata !{i32 786453, i32 0, null, metadata !"", i32 0, i64 0, i64 0, i64 0, i32 0, null, metadata !214, i32 0, null, null, null} ; [ DW_TAG_subroutine_type ] [line 0, size 0, align 0, offset 0] [from ]
!214 = metadata !{metadata !49, metadata !104, metadata !49, metadata !215}
!215 = metadata !{i32 786447, null, null, metadata !"", i32 0, i64 64, i64 64, i64 0, i32 0, metadata !216} ; [ DW_TAG_pointer_type ] [line 0, size 64, align 64, offset 0] [from ]
!216 = metadata !{i32 786470, null, null, metadata !"", i32 0, i64 0, i64 0, i64 0, i32 0, metadata !217} ; [ DW_TAG_const_type ] [line 0, size 0, align 0, offset 0] [from char]
!217 = metadata !{i32 786468, null, null, metadata !"char", i32 0, i64 8, i64 8, i64 0, i32 0, i32 6} ; [ DW_TAG_base_type ] [char] [line 0, size 8, align 8, offset 0, enc DW_ATE_signed_char]
!218 = metadata !{i32 786478, metadata !33, metadata !"_ZTSSt6vectorISsSaISsEE", metadata !"_M_erase_at_end", metadata !"_M_erase_at_end", metadata !"_ZNSt6vectorISsSaISsEE15_M_erase_at_endEPSs", i32 1350, metadata !219, i1 false, i1 false, i32 0, i32 0,
!219 = metadata !{i32 786453, i32 0, null, metadata !"", i32 0, i64 0, i64 0, i64 0, i32 0, null, metadata !220, i32 0, null, null, null} ; [ DW_TAG_subroutine_type ] [line 0, size 0, align 0, offset 0] [from ]
!220 = metadata !{null, metadata !39, metadata !221}
!221 = metadata !{i32 786454, metadata !33, metadata !"_ZTSSt6vectorISsSaISsEE", metadata !"pointer", i32 223, i64 0, i64 0, i64 0, i32 0, metadata !222} ; [ DW_TAG_typedef ] [pointer] [line 223, size 0, align 0, offset 0] [from pointer]
!222 = metadata !{i32 786454, metadata !33, metadata !"_ZTSSt12_Vector_baseISsSaISsEE", metadata !"pointer", i32 77, i64 0, i64 0, i64 0, i32 0, metadata !223} ; [ DW_TAG_typedef ] [pointer] [line 77, size 0, align 0, offset 0] [from pointer]
!223 = metadata !{i32 786454, metadata !33, metadata !"_ZTSN9__gnu_cxx14__alloc_traitsISaISsEEE", metadata !"pointer", i32 130, i64 0, i64 0, i64 0, i32 0, metadata !224} ; [ DW_TAG_typedef ] [pointer] [line 130, size 0, align 0, offset 0] [from pointer]
!224 = metadata !{i32 786454, metadata !143, metadata !"_ZTSSt16allocator_traitsISaISsEE", metadata !"pointer", i32 107, i64 0, i64 0, i64 0, i32 0, metadata !225} ; [ DW_TAG_typedef ] [pointer] [line 107, size 0, align 0, offset 0] [from __pointer]
!225 = metadata !{i32 786454, metadata !143, metadata !"_ZTSSt16allocator_traitsISaISsEE", metadata !"__pointer", i32 100, i64 0, i64 0, i64 0, i32 0, metadata !226} ; [ DW_TAG_typedef ] [__pointer] [line 100, size 0, align 0, offset 0] [from pointer]
!226 = metadata !{i32 786454, metadata !143, metadata !"_ZTSSaISsE", metadata !"pointer", i32 97, i64 0, i64 0, i64 0, i32 0, metadata !168} ; [ DW_TAG_typedef ] [pointer] [line 97, size 0, align 0, offset 0] [from ]
!227 = metadata !{i32 786478, metadata !33, metadata !"_ZTSSt6vectorISsSaISsEE", metadata !"_M_move_assign", metadata !"_M_move_assign", metadata !"_ZNSt6vectorISsSaISsEE14_M_move_assignEOS1_St17integral_constantIbLb1EE", i32 1362, metadata !228, i1 fals
!228 = metadata !{i32 786453, i32 0, null, metadata !"", i32 0, i64 0, i64 0, i64 0, i32 0, null, metadata !229, i32 0, null, null, null} ; [ DW_TAG_subroutine_type ] [line 0, size 0, align 0, offset 0] [from ]
!229 = metadata !{null, metadata !39, metadata !67, metadata !230}
!230 = metadata !{i32 786454, metadata !33, metadata !5, metadata !"true_type", i32 69, i64 0, i64 0, i64 0, i32 0, metadata !"_ZTSSt17integral_constantIbLb1EE"} ; [ DW_TAG_typedef ] [true_type] [line 69, size 0, align 0, offset 0] [from _ZTSSt17integral
!231 = metadata !{i32 786478, metadata !33, metadata !"_ZTSSt6vectorISsSaISsEE", metadata !"_M_move_assign", metadata !"_M_move_assign", metadata !"_ZNSt6vectorISsSaISsEE14_M_move_assignEOS1_St17integral_constantIbLb0EE", i32 1375, metadata !232, i1 fals
!232 = metadata !{i32 786453, i32 0, null, metadata !"", i32 0, i64 0, i64 0, i64 0, i32 0, null, metadata !233, i32 0, null, null, null} ; [ DW_TAG_subroutine_type ] [line 0, size 0, align 0, offset 0] [from ]
!233 = metadata !{null, metadata !39, metadata !67, metadata !234}
!234 = metadata !{i32 786454, metadata !143, metadata !5, metadata !"false_type", i32 72, i64 0, i64 0, i64 0, i32 0, metadata !"_ZTSSt17integral_constantIbLb0EE"} ; [ DW_TAG_typedef ] [false_type] [line 72, size 0, align 0, offset 0] [from _ZTSSt17integ
!235 = metadata !{i32 786478, metadata !33, metadata !"_ZTSSt6vectorISsSaISsEE", metadata !"emplace_back<std::basic_string<char> >", metadata !"emplace_back<std::basic_string<char> >", metadata !"_ZNSt6vectorISsSaISsEE12emplace_backIJSsEEEvDpOT_", i32 92
!236 = metadata !{i32 786453, i32 0, null, metadata !"", i32 0, i64 0, i64 0, i64 0, i32 0, null, metadata !237, i32 0, null, null, null} ; [ DW_TAG_subroutine_type ] [line 0, size 0, align 0, offset 0] [from ]
!237 = metadata !{null, metadata !39, metadata !238}
!238 = metadata !{i32 786498, null, null, null, i32 0, i64 0, i64 0, i64 0, i32 0, metadata !"_ZTSSs"} ; [ DW_TAG_rvalue_reference_type ] [line 0, size 0, align 0, offset 0] [from _ZTSSs]
!239 = metadata !{metadata !240}
!240 = metadata !{i32 803079, null, metadata !"_Args", null, metadata !241, null, i32 0, i32 0} ; [ DW_TAG_GNU_template_parameter_pack ]
!241 = metadata !{metadata !242}
!242 = metadata !{i32 786479, null, metadata !"", metadata !"_ZTSSs", null, i32 0, i32 0} ; [ DW_TAG_template_type_parameter ]
!243 = metadata !{i32 786478, metadata !33, metadata !"_ZTSSt6vectorISsSaISsEE", metadata !"_M_emplace_back_aux<std::basic_string<char> >", metadata !"_M_emplace_back_aux<std::basic_string<char> >", metadata !"_ZNSt6vectorISsSaISsEE19_M_emplace_back_auxI
!244 = metadata !{metadata !245, metadata !246}
!245 = metadata !{i32 786479, null, metadata !"_Tp", metadata !"_ZTSSs", null, i32 0, i32 0} ; [ DW_TAG_template_type_parameter ]
!246 = metadata !{i32 786479, null, metadata !"_Alloc", metadata !"_ZTSSaISsE", null, i32 0, i32 0} ; [ DW_TAG_template_type_parameter ]
!247 = metadata !{i32 786434, metadata !248, metadata !5, metadata !"basic_string<char>", i32 1132, i64 64, i64 64, i32 0, i32 0, null, metadata !249, i32 0, null, metadata !630, metadata !"_ZTSSs"} ; [ DW_TAG_class_type ] [basic_string<char>] [line 1132
!248 = metadata !{metadata !"/usr/bin/../lib/gcc/x86_64-linux-gnu/4.8/../../../../include/c++/4.8/bits/basic_string.tcc", metadata !"/home/klee/ST/commission"}
!249 = metadata !{metadata !250, metadata !255, metadata !256, metadata !261, metadata !265, metadata !269, metadata !273, metadata !274, metadata !277, metadata !280, metadata !283, metadata !286, metadata !289, metadata !292, metadata !293, metadata !2
!250 = metadata !{i32 786445, metadata !251, metadata !"_ZTSSs", metadata !"npos", i32 285, i64 0, i64 0, i64 0, i32 4096, metadata !252, i64 -1} ; [ DW_TAG_member ] [npos] [line 285, size 0, align 0, offset 0] [static] [from ]
!251 = metadata !{metadata !"/usr/bin/../lib/gcc/x86_64-linux-gnu/4.8/../../../../include/c++/4.8/bits/basic_string.h", metadata !"/home/klee/ST/commission"}
!252 = metadata !{i32 786470, null, null, metadata !"", i32 0, i64 0, i64 0, i64 0, i32 0, metadata !253} ; [ DW_TAG_const_type ] [line 0, size 0, align 0, offset 0] [from size_type]
!253 = metadata !{i32 786454, metadata !251, metadata !"_ZTSSs", metadata !"size_type", i32 121, i64 0, i64 0, i64 0, i32 0, metadata !254} ; [ DW_TAG_typedef ] [size_type] [line 121, size 0, align 0, offset 0] [from size_type]
!254 = metadata !{i32 786454, metadata !251, metadata !"_ZTSSaIcE", metadata !"size_type", i32 95, i64 0, i64 0, i64 0, i32 0, metadata !50} ; [ DW_TAG_typedef ] [size_type] [line 95, size 0, align 0, offset 0] [from size_t]
!255 = metadata !{i32 786445, metadata !251, metadata !"_ZTSSs", metadata !"_M_dataplus", i32 289, i64 64, i64 64, i64 0, i32 1, metadata !"_ZTSNSs12_Alloc_hiderE"} ; [ DW_TAG_member ] [_M_dataplus] [line 289, size 64, align 64, offset 0] [private] [from
!256 = metadata !{i32 786478, metadata !251, metadata !"_ZTSSs", metadata !"_M_data", metadata !"_M_data", metadata !"_ZNKSs7_M_dataEv", i32 292, metadata !257, i1 false, i1 false, i32 0, i32 0, null, i32 257, i1 false, null, null, i32 0, metadata !30, i
!257 = metadata !{i32 786453, i32 0, null, metadata !"", i32 0, i64 0, i64 0, i64 0, i32 0, null, metadata !258, i32 0, null, null, null} ; [ DW_TAG_subroutine_type ] [line 0, size 0, align 0, offset 0] [from ]
!258 = metadata !{metadata !259, metadata !260}
!259 = metadata !{i32 786447, null, null, metadata !"", i32 0, i64 64, i64 64, i64 0, i32 0, metadata !217} ; [ DW_TAG_pointer_type ] [line 0, size 64, align 64, offset 0] [from char]
!260 = metadata !{i32 786447, null, null, metadata !"", i32 0, i64 64, i64 64, i64 0, i32 1088, metadata !173} ; [ DW_TAG_pointer_type ] [line 0, size 64, align 64, offset 0] [artificial] [from ]
!261 = metadata !{i32 786478, metadata !251, metadata !"_ZTSSs", metadata !"_M_data", metadata !"_M_data", metadata !"_ZNSs7_M_dataEPc", i32 296, metadata !262, i1 false, i1 false, i32 0, i32 0, null, i32 257, i1 false, null, null, i32 0, metadata !30, i
!262 = metadata !{i32 786453, i32 0, null, metadata !"", i32 0, i64 0, i64 0, i64 0, i32 0, null, metadata !263, i32 0, null, null, null} ; [ DW_TAG_subroutine_type ] [line 0, size 0, align 0, offset 0] [from ]
!263 = metadata !{metadata !259, metadata !264, metadata !259}
!264 = metadata !{i32 786447, null, null, metadata !"", i32 0, i64 64, i64 64, i64 0, i32 1088, metadata !"_ZTSSs"} ; [ DW_TAG_pointer_type ] [line 0, size 64, align 64, offset 0] [artificial] [from _ZTSSs]
!265 = metadata !{i32 786478, metadata !251, metadata !"_ZTSSs", metadata !"_M_rep", metadata !"_M_rep", metadata !"_ZNKSs6_M_repEv", i32 300, metadata !266, i1 false, i1 false, i32 0, i32 0, null, i32 257, i1 false, null, null, i32 0, metadata !30, i32 
!266 = metadata !{i32 786453, i32 0, null, metadata !"", i32 0, i64 0, i64 0, i64 0, i32 0, null, metadata !267, i32 0, null, null, null} ; [ DW_TAG_subroutine_type ] [line 0, size 0, align 0, offset 0] [from ]
!267 = metadata !{metadata !268, metadata !260}
!268 = metadata !{i32 786447, null, null, metadata !"", i32 0, i64 64, i64 64, i64 0, i32 0, metadata !"_ZTSNSs4_RepE"} ; [ DW_TAG_pointer_type ] [line 0, size 64, align 64, offset 0] [from _ZTSNSs4_RepE]
!269 = metadata !{i32 786478, metadata !251, metadata !"_ZTSSs", metadata !"_M_ibegin", metadata !"_M_ibegin", metadata !"_ZNKSs9_M_ibeginEv", i32 306, metadata !270, i1 false, i1 false, i32 0, i32 0, null, i32 257, i1 false, null, null, i32 0, metadata 
!270 = metadata !{i32 786453, i32 0, null, metadata !"", i32 0, i64 0, i64 0, i64 0, i32 0, null, metadata !271, i32 0, null, null, null} ; [ DW_TAG_subroutine_type ] [line 0, size 0, align 0, offset 0] [from ]
!271 = metadata !{metadata !272, metadata !260}
!272 = metadata !{i32 786454, metadata !248, metadata !"_ZTSSs", metadata !"iterator", i32 127, i64 0, i64 0, i64 0, i32 0, metadata !"_ZTSN9__gnu_cxx17__normal_iteratorIPcSsEE"} ; [ DW_TAG_typedef ] [iterator] [line 127, size 0, align 0, offset 0] [from
!273 = metadata !{i32 786478, metadata !251, metadata !"_ZTSSs", metadata !"_M_iend", metadata !"_M_iend", metadata !"_ZNKSs7_M_iendEv", i32 310, metadata !270, i1 false, i1 false, i32 0, i32 0, null, i32 257, i1 false, null, null, i32 0, metadata !30, i
!274 = metadata !{i32 786478, metadata !251, metadata !"_ZTSSs", metadata !"_M_leak", metadata !"_M_leak", metadata !"_ZNSs7_M_leakEv", i32 314, metadata !275, i1 false, i1 false, i32 0, i32 0, null, i32 257, i1 false, null, null, i32 0, metadata !30, i3
!275 = metadata !{i32 786453, i32 0, null, metadata !"", i32 0, i64 0, i64 0, i64 0, i32 0, null, metadata !276, i32 0, null, null, null} ; [ DW_TAG_subroutine_type ] [line 0, size 0, align 0, offset 0] [from ]
!276 = metadata !{null, metadata !264}
!277 = metadata !{i32 786478, metadata !251, metadata !"_ZTSSs", metadata !"_M_check", metadata !"_M_check", metadata !"_ZNKSs8_M_checkEmPKc", i32 321, metadata !278, i1 false, i1 false, i32 0, i32 0, null, i32 257, i1 false, null, null, i32 0, metadata 
!278 = metadata !{i32 786453, i32 0, null, metadata !"", i32 0, i64 0, i64 0, i64 0, i32 0, null, metadata !279, i32 0, null, null, null} ; [ DW_TAG_subroutine_type ] [line 0, size 0, align 0, offset 0] [from ]
!279 = metadata !{metadata !253, metadata !260, metadata !253, metadata !215}
!280 = metadata !{i32 786478, metadata !251, metadata !"_ZTSSs", metadata !"_M_check_length", metadata !"_M_check_length", metadata !"_ZNKSs15_M_check_lengthEmmPKc", i32 329, metadata !281, i1 false, i1 false, i32 0, i32 0, null, i32 257, i1 false, null,
!281 = metadata !{i32 786453, i32 0, null, metadata !"", i32 0, i64 0, i64 0, i64 0, i32 0, null, metadata !282, i32 0, null, null, null} ; [ DW_TAG_subroutine_type ] [line 0, size 0, align 0, offset 0] [from ]
!282 = metadata !{null, metadata !260, metadata !253, metadata !253, metadata !215}
!283 = metadata !{i32 786478, metadata !251, metadata !"_ZTSSs", metadata !"_M_limit", metadata !"_M_limit", metadata !"_ZNKSs8_M_limitEmm", i32 337, metadata !284, i1 false, i1 false, i32 0, i32 0, null, i32 257, i1 false, null, null, i32 0, metadata !3
!284 = metadata !{i32 786453, i32 0, null, metadata !"", i32 0, i64 0, i64 0, i64 0, i32 0, null, metadata !285, i32 0, null, null, null} ; [ DW_TAG_subroutine_type ] [line 0, size 0, align 0, offset 0] [from ]
!285 = metadata !{metadata !253, metadata !260, metadata !253, metadata !253}
!286 = metadata !{i32 786478, metadata !251, metadata !"_ZTSSs", metadata !"_M_disjunct", metadata !"_M_disjunct", metadata !"_ZNKSs11_M_disjunctEPKc", i32 345, metadata !287, i1 false, i1 false, i32 0, i32 0, null, i32 257, i1 false, null, null, i32 0, 
!287 = metadata !{i32 786453, i32 0, null, metadata !"", i32 0, i64 0, i64 0, i64 0, i32 0, null, metadata !288, i32 0, null, null, null} ; [ DW_TAG_subroutine_type ] [line 0, size 0, align 0, offset 0] [from ]
!288 = metadata !{metadata !25, metadata !260, metadata !215}
!289 = metadata !{i32 786478, metadata !251, metadata !"_ZTSSs", metadata !"_M_copy", metadata !"_M_copy", metadata !"_ZNSs7_M_copyEPcPKcm", i32 354, metadata !290, i1 false, i1 false, i32 0, i32 0, null, i32 257, i1 false, null, null, i32 0, metadata !3
!290 = metadata !{i32 786453, i32 0, null, metadata !"", i32 0, i64 0, i64 0, i64 0, i32 0, null, metadata !291, i32 0, null, null, null} ; [ DW_TAG_subroutine_type ] [line 0, size 0, align 0, offset 0] [from ]
!291 = metadata !{null, metadata !259, metadata !215, metadata !253}
!292 = metadata !{i32 786478, metadata !251, metadata !"_ZTSSs", metadata !"_M_move", metadata !"_M_move", metadata !"_ZNSs7_M_moveEPcPKcm", i32 363, metadata !290, i1 false, i1 false, i32 0, i32 0, null, i32 257, i1 false, null, null, i32 0, metadata !3
!293 = metadata !{i32 786478, metadata !251, metadata !"_ZTSSs", metadata !"_M_assign", metadata !"_M_assign", metadata !"_ZNSs9_M_assignEPcmc", i32 372, metadata !294, i1 false, i1 false, i32 0, i32 0, null, i32 257, i1 false, null, null, i32 0, metadat
!294 = metadata !{i32 786453, i32 0, null, metadata !"", i32 0, i64 0, i64 0, i64 0, i32 0, null, metadata !295, i32 0, null, null, null} ; [ DW_TAG_subroutine_type ] [line 0, size 0, align 0, offset 0] [from ]
!295 = metadata !{null, metadata !259, metadata !253, metadata !217}
!296 = metadata !{i32 786478, metadata !251, metadata !"_ZTSSs", metadata !"_S_copy_chars", metadata !"_S_copy_chars", metadata !"_ZNSs13_S_copy_charsEPcN9__gnu_cxx17__normal_iteratorIS_SsEES2_", i32 391, metadata !297, i1 false, i1 false, i32 0, i32 0, 
!297 = metadata !{i32 786453, i32 0, null, metadata !"", i32 0, i64 0, i64 0, i64 0, i32 0, null, metadata !298, i32 0, null, null, null} ; [ DW_TAG_subroutine_type ] [line 0, size 0, align 0, offset 0] [from ]
!298 = metadata !{null, metadata !259, metadata !272, metadata !272}
!299 = metadata !{i32 786478, metadata !251, metadata !"_ZTSSs", metadata !"_S_copy_chars", metadata !"_S_copy_chars", metadata !"_ZNSs13_S_copy_charsEPcN9__gnu_cxx17__normal_iteratorIPKcSsEES4_", i32 395, metadata !300, i1 false, i1 false, i32 0, i32 0,
!300 = metadata !{i32 786453, i32 0, null, metadata !"", i32 0, i64 0, i64 0, i64 0, i32 0, null, metadata !301, i32 0, null, null, null} ; [ DW_TAG_subroutine_type ] [line 0, size 0, align 0, offset 0] [from ]
!301 = metadata !{null, metadata !259, metadata !302, metadata !302}
!302 = metadata !{i32 786454, metadata !248, metadata !"_ZTSSs", metadata !"const_iterator", i32 129, i64 0, i64 0, i64 0, i32 0, metadata !"_ZTSN9__gnu_cxx17__normal_iteratorIPKcSsEE"} ; [ DW_TAG_typedef ] [const_iterator] [line 129, size 0, align 0, of
!303 = metadata !{i32 786478, metadata !251, metadata !"_ZTSSs", metadata !"_S_copy_chars", metadata !"_S_copy_chars", metadata !"_ZNSs13_S_copy_charsEPcS_S_", i32 399, metadata !304, i1 false, i1 false, i32 0, i32 0, null, i32 257, i1 false, null, null,
!304 = metadata !{i32 786453, i32 0, null, metadata !"", i32 0, i64 0, i64 0, i64 0, i32 0, null, metadata !305, i32 0, null, null, null} ; [ DW_TAG_subroutine_type ] [line 0, size 0, align 0, offset 0] [from ]
!305 = metadata !{null, metadata !259, metadata !259, metadata !259}
!306 = metadata !{i32 786478, metadata !251, metadata !"_ZTSSs", metadata !"_S_copy_chars", metadata !"_S_copy_chars", metadata !"_ZNSs13_S_copy_charsEPcPKcS1_", i32 403, metadata !307, i1 false, i1 false, i32 0, i32 0, null, i32 257, i1 false, null, nul
!307 = metadata !{i32 786453, i32 0, null, metadata !"", i32 0, i64 0, i64 0, i64 0, i32 0, null, metadata !308, i32 0, null, null, null} ; [ DW_TAG_subroutine_type ] [line 0, size 0, align 0, offset 0] [from ]
!308 = metadata !{null, metadata !259, metadata !215, metadata !215}
!309 = metadata !{i32 786478, metadata !251, metadata !"_ZTSSs", metadata !"_S_compare", metadata !"_S_compare", metadata !"_ZNSs10_S_compareEmm", i32 407, metadata !310, i1 false, i1 false, i32 0, i32 0, null, i32 257, i1 false, null, null, i32 0, metad
!310 = metadata !{i32 786453, i32 0, null, metadata !"", i32 0, i64 0, i64 0, i64 0, i32 0, null, metadata !311, i32 0, null, null, null} ; [ DW_TAG_subroutine_type ] [line 0, size 0, align 0, offset 0] [from ]
!311 = metadata !{metadata !23, metadata !253, metadata !253}
!312 = metadata !{i32 786478, metadata !251, metadata !"_ZTSSs", metadata !"_M_mutate", metadata !"_M_mutate", metadata !"_ZNSs9_M_mutateEmmm", i32 420, metadata !313, i1 false, i1 false, i32 0, i32 0, null, i32 257, i1 false, null, null, i32 0, metadata
!313 = metadata !{i32 786453, i32 0, null, metadata !"", i32 0, i64 0, i64 0, i64 0, i32 0, null, metadata !314, i32 0, null, null, null} ; [ DW_TAG_subroutine_type ] [line 0, size 0, align 0, offset 0] [from ]
!314 = metadata !{null, metadata !264, metadata !253, metadata !253, metadata !253}
!315 = metadata !{i32 786478, metadata !251, metadata !"_ZTSSs", metadata !"_M_leak_hard", metadata !"_M_leak_hard", metadata !"_ZNSs12_M_leak_hardEv", i32 423, metadata !275, i1 false, i1 false, i32 0, i32 0, null, i32 257, i1 false, null, null, i32 0, 
!316 = metadata !{i32 786478, metadata !251, metadata !"_ZTSSs", metadata !"_S_empty_rep", metadata !"_S_empty_rep", metadata !"_ZNSs12_S_empty_repEv", i32 426, metadata !317, i1 false, i1 false, i32 0, i32 0, null, i32 257, i1 false, null, null, i32 0, 
!317 = metadata !{i32 786453, i32 0, null, metadata !"", i32 0, i64 0, i64 0, i64 0, i32 0, null, metadata !318, i32 0, null, null, null} ; [ DW_TAG_subroutine_type ] [line 0, size 0, align 0, offset 0] [from ]
!318 = metadata !{metadata !319}
!319 = metadata !{i32 786448, null, null, null, i32 0, i64 0, i64 0, i64 0, i32 0, metadata !"_ZTSNSs4_RepE"} ; [ DW_TAG_reference_type ] [line 0, size 0, align 0, offset 0] [from _ZTSNSs4_RepE]
!320 = metadata !{i32 786478, metadata !251, metadata !"_ZTSSs", metadata !"basic_string", metadata !"basic_string", metadata !"", i32 437, metadata !275, i1 false, i1 false, i32 0, i32 0, null, i32 256, i1 false, null, null, i32 0, metadata !30, i32 437
!321 = metadata !{i32 786478, metadata !251, metadata !"_ZTSSs", metadata !"basic_string", metadata !"basic_string", metadata !"", i32 448, metadata !322, i1 false, i1 false, i32 0, i32 0, null, i32 384, i1 false, null, null, i32 0, metadata !30, i32 448
!322 = metadata !{i32 786453, i32 0, null, metadata !"", i32 0, i64 0, i64 0, i64 0, i32 0, null, metadata !323, i32 0, null, null, null} ; [ DW_TAG_subroutine_type ] [line 0, size 0, align 0, offset 0] [from ]
!323 = metadata !{null, metadata !264, metadata !324}
!324 = metadata !{i32 786448, null, null, null, i32 0, i64 0, i64 0, i64 0, i32 0, metadata !325} ; [ DW_TAG_reference_type ] [line 0, size 0, align 0, offset 0] [from ]
!325 = metadata !{i32 786470, null, null, metadata !"", i32 0, i64 0, i64 0, i64 0, i32 0, metadata !"_ZTSSaIcE"} ; [ DW_TAG_const_type ] [line 0, size 0, align 0, offset 0] [from _ZTSSaIcE]
!326 = metadata !{i32 786478, metadata !251, metadata !"_ZTSSs", metadata !"basic_string", metadata !"basic_string", metadata !"", i32 455, metadata !327, i1 false, i1 false, i32 0, i32 0, null, i32 256, i1 false, null, null, i32 0, metadata !30, i32 455
!327 = metadata !{i32 786453, i32 0, null, metadata !"", i32 0, i64 0, i64 0, i64 0, i32 0, null, metadata !328, i32 0, null, null, null} ; [ DW_TAG_subroutine_type ] [line 0, size 0, align 0, offset 0] [from ]
!328 = metadata !{null, metadata !264, metadata !329}
!329 = metadata !{i32 786448, null, null, null, i32 0, i64 0, i64 0, i64 0, i32 0, metadata !173} ; [ DW_TAG_reference_type ] [line 0, size 0, align 0, offset 0] [from ]
!330 = metadata !{i32 786478, metadata !251, metadata !"_ZTSSs", metadata !"basic_string", metadata !"basic_string", metadata !"", i32 462, metadata !331, i1 false, i1 false, i32 0, i32 0, null, i32 256, i1 false, null, null, i32 0, metadata !30, i32 462
!331 = metadata !{i32 786453, i32 0, null, metadata !"", i32 0, i64 0, i64 0, i64 0, i32 0, null, metadata !332, i32 0, null, null, null} ; [ DW_TAG_subroutine_type ] [line 0, size 0, align 0, offset 0] [from ]
!332 = metadata !{null, metadata !264, metadata !329, metadata !253, metadata !253}
!333 = metadata !{i32 786478, metadata !251, metadata !"_ZTSSs", metadata !"basic_string", metadata !"basic_string", metadata !"", i32 471, metadata !334, i1 false, i1 false, i32 0, i32 0, null, i32 256, i1 false, null, null, i32 0, metadata !30, i32 471
!334 = metadata !{i32 786453, i32 0, null, metadata !"", i32 0, i64 0, i64 0, i64 0, i32 0, null, metadata !335, i32 0, null, null, null} ; [ DW_TAG_subroutine_type ] [line 0, size 0, align 0, offset 0] [from ]
!335 = metadata !{null, metadata !264, metadata !329, metadata !253, metadata !253, metadata !324}
!336 = metadata !{i32 786478, metadata !251, metadata !"_ZTSSs", metadata !"basic_string", metadata !"basic_string", metadata !"", i32 483, metadata !337, i1 false, i1 false, i32 0, i32 0, null, i32 256, i1 false, null, null, i32 0, metadata !30, i32 483
!337 = metadata !{i32 786453, i32 0, null, metadata !"", i32 0, i64 0, i64 0, i64 0, i32 0, null, metadata !338, i32 0, null, null, null} ; [ DW_TAG_subroutine_type ] [line 0, size 0, align 0, offset 0] [from ]
!338 = metadata !{null, metadata !264, metadata !215, metadata !253, metadata !324}
!339 = metadata !{i32 786478, metadata !251, metadata !"_ZTSSs", metadata !"basic_string", metadata !"basic_string", metadata !"", i32 490, metadata !340, i1 false, i1 false, i32 0, i32 0, null, i32 256, i1 false, null, null, i32 0, metadata !30, i32 490
!340 = metadata !{i32 786453, i32 0, null, metadata !"", i32 0, i64 0, i64 0, i64 0, i32 0, null, metadata !341, i32 0, null, null, null} ; [ DW_TAG_subroutine_type ] [line 0, size 0, align 0, offset 0] [from ]
!341 = metadata !{null, metadata !264, metadata !215, metadata !324}
!342 = metadata !{i32 786478, metadata !251, metadata !"_ZTSSs", metadata !"basic_string", metadata !"basic_string", metadata !"", i32 497, metadata !343, i1 false, i1 false, i32 0, i32 0, null, i32 256, i1 false, null, null, i32 0, metadata !30, i32 497
!343 = metadata !{i32 786453, i32 0, null, metadata !"", i32 0, i64 0, i64 0, i64 0, i32 0, null, metadata !344, i32 0, null, null, null} ; [ DW_TAG_subroutine_type ] [line 0, size 0, align 0, offset 0] [from ]
!344 = metadata !{null, metadata !264, metadata !253, metadata !217, metadata !324}
!345 = metadata !{i32 786478, metadata !251, metadata !"_ZTSSs", metadata !"basic_string", metadata !"basic_string", metadata !"", i32 507, metadata !346, i1 false, i1 false, i32 0, i32 0, null, i32 256, i1 false, null, null, i32 0, metadata !30, i32 507
!346 = metadata !{i32 786453, i32 0, null, metadata !"", i32 0, i64 0, i64 0, i64 0, i32 0, null, metadata !347, i32 0, null, null, null} ; [ DW_TAG_subroutine_type ] [line 0, size 0, align 0, offset 0] [from ]
!347 = metadata !{null, metadata !264, metadata !238}
!348 = metadata !{i32 786478, metadata !251, metadata !"_ZTSSs", metadata !"basic_string", metadata !"basic_string", metadata !"", i32 522, metadata !349, i1 false, i1 false, i32 0, i32 0, null, i32 256, i1 false, null, null, i32 0, metadata !30, i32 522
!349 = metadata !{i32 786453, i32 0, null, metadata !"", i32 0, i64 0, i64 0, i64 0, i32 0, null, metadata !350, i32 0, null, null, null} ; [ DW_TAG_subroutine_type ] [line 0, size 0, align 0, offset 0] [from ]
!350 = metadata !{null, metadata !264, metadata !351, metadata !324}
!351 = metadata !{i32 786434, metadata !78, metadata !5, metadata !"initializer_list<char>", i32 47, i64 128, i64 64, i32 0, i32 0, null, metadata !352, i32 0, null, metadata !374, metadata !"_ZTSSt16initializer_listIcE"} ; [ DW_TAG_class_type ] [initial
!352 = metadata !{metadata !353, metadata !355, metadata !357, metadata !362, metadata !365, metadata !370, metadata !373}
!353 = metadata !{i32 786445, metadata !78, metadata !"_ZTSSt16initializer_listIcE", metadata !"_M_array", i32 58, i64 64, i64 64, i64 0, i32 1, metadata !354} ; [ DW_TAG_member ] [_M_array] [line 58, size 64, align 64, offset 0] [private] [from iterator
!354 = metadata !{i32 786454, metadata !78, metadata !"_ZTSSt16initializer_listIcE", metadata !"iterator", i32 54, i64 0, i64 0, i64 0, i32 0, metadata !215} ; [ DW_TAG_typedef ] [iterator] [line 54, size 0, align 0, offset 0] [from ]
!355 = metadata !{i32 786445, metadata !78, metadata !"_ZTSSt16initializer_listIcE", metadata !"_M_len", i32 59, i64 64, i64 64, i64 64, i32 1, metadata !356} ; [ DW_TAG_member ] [_M_len] [line 59, size 64, align 64, offset 64] [private] [from size_type]
!356 = metadata !{i32 786454, metadata !78, null, metadata !"size_type", i32 53, i64 0, i64 0, i64 0, i32 0, metadata !50} ; [ DW_TAG_typedef ] [size_type] [line 53, size 0, align 0, offset 0] [from size_t]
!357 = metadata !{i32 786478, metadata !78, metadata !"_ZTSSt16initializer_listIcE", metadata !"initializer_list", metadata !"initializer_list", metadata !"", i32 62, metadata !358, i1 false, i1 false, i32 0, i32 0, null, i32 257, i1 false, null, null, i
!358 = metadata !{i32 786453, i32 0, null, metadata !"", i32 0, i64 0, i64 0, i64 0, i32 0, null, metadata !359, i32 0, null, null, null} ; [ DW_TAG_subroutine_type ] [line 0, size 0, align 0, offset 0] [from ]
!359 = metadata !{null, metadata !360, metadata !361, metadata !356}
!360 = metadata !{i32 786447, null, null, metadata !"", i32 0, i64 64, i64 64, i64 0, i32 1088, metadata !"_ZTSSt16initializer_listIcE"} ; [ DW_TAG_pointer_type ] [line 0, size 64, align 64, offset 0] [artificial] [from _ZTSSt16initializer_listIcE]
!361 = metadata !{i32 786454, metadata !78, metadata !"_ZTSSt16initializer_listIcE", metadata !"const_iterator", i32 55, i64 0, i64 0, i64 0, i32 0, metadata !215} ; [ DW_TAG_typedef ] [const_iterator] [line 55, size 0, align 0, offset 0] [from ]
!362 = metadata !{i32 786478, metadata !78, metadata !"_ZTSSt16initializer_listIcE", metadata !"initializer_list", metadata !"initializer_list", metadata !"", i32 66, metadata !363, i1 false, i1 false, i32 0, i32 0, null, i32 256, i1 false, null, null, i
!363 = metadata !{i32 786453, i32 0, null, metadata !"", i32 0, i64 0, i64 0, i64 0, i32 0, null, metadata !364, i32 0, null, null, null} ; [ DW_TAG_subroutine_type ] [line 0, size 0, align 0, offset 0] [from ]
!364 = metadata !{null, metadata !360}
!365 = metadata !{i32 786478, metadata !78, metadata !"_ZTSSt16initializer_listIcE", metadata !"size", metadata !"size", metadata !"_ZNKSt16initializer_listIcE4sizeEv", i32 71, metadata !366, i1 false, i1 false, i32 0, i32 0, null, i32 256, i1 false, nul
!366 = metadata !{i32 786453, i32 0, null, metadata !"", i32 0, i64 0, i64 0, i64 0, i32 0, null, metadata !367, i32 0, null, null, null} ; [ DW_TAG_subroutine_type ] [line 0, size 0, align 0, offset 0] [from ]
!367 = metadata !{metadata !356, metadata !368}
!368 = metadata !{i32 786447, null, null, metadata !"", i32 0, i64 64, i64 64, i64 0, i32 1088, metadata !369} ; [ DW_TAG_pointer_type ] [line 0, size 64, align 64, offset 0] [artificial] [from ]
!369 = metadata !{i32 786470, null, null, metadata !"", i32 0, i64 0, i64 0, i64 0, i32 0, metadata !"_ZTSSt16initializer_listIcE"} ; [ DW_TAG_const_type ] [line 0, size 0, align 0, offset 0] [from _ZTSSt16initializer_listIcE]
!370 = metadata !{i32 786478, metadata !78, metadata !"_ZTSSt16initializer_listIcE", metadata !"begin", metadata !"begin", metadata !"_ZNKSt16initializer_listIcE5beginEv", i32 75, metadata !371, i1 false, i1 false, i32 0, i32 0, null, i32 256, i1 false, 
!371 = metadata !{i32 786453, i32 0, null, metadata !"", i32 0, i64 0, i64 0, i64 0, i32 0, null, metadata !372, i32 0, null, null, null} ; [ DW_TAG_subroutine_type ] [line 0, size 0, align 0, offset 0] [from ]
!372 = metadata !{metadata !361, metadata !368}
!373 = metadata !{i32 786478, metadata !78, metadata !"_ZTSSt16initializer_listIcE", metadata !"end", metadata !"end", metadata !"_ZNKSt16initializer_listIcE3endEv", i32 79, metadata !371, i1 false, i1 false, i32 0, i32 0, null, i32 256, i1 false, null, 
!374 = metadata !{metadata !375}
!375 = metadata !{i32 786479, null, metadata !"_E", metadata !217, null, i32 0, i32 0} ; [ DW_TAG_template_type_parameter ]
!376 = metadata !{i32 786478, metadata !251, metadata !"_ZTSSs", metadata !"~basic_string", metadata !"~basic_string", metadata !"", i32 538, metadata !275, i1 false, i1 false, i32 0, i32 0, null, i32 256, i1 false, null, null, i32 0, metadata !30, i32 5
!377 = metadata !{i32 786478, metadata !251, metadata !"_ZTSSs", metadata !"operator=", metadata !"operator=", metadata !"_ZNSsaSERKSs", i32 546, metadata !378, i1 false, i1 false, i32 0, i32 0, null, i32 256, i1 false, null, null, i32 0, metadata !30, i
!378 = metadata !{i32 786453, i32 0, null, metadata !"", i32 0, i64 0, i64 0, i64 0, i32 0, null, metadata !379, i32 0, null, null, null} ; [ DW_TAG_subroutine_type ] [line 0, size 0, align 0, offset 0] [from ]
!379 = metadata !{metadata !380, metadata !264, metadata !329}
!380 = metadata !{i32 786448, null, null, null, i32 0, i64 0, i64 0, i64 0, i32 0, metadata !"_ZTSSs"} ; [ DW_TAG_reference_type ] [line 0, size 0, align 0, offset 0] [from _ZTSSs]
!381 = metadata !{i32 786478, metadata !251, metadata !"_ZTSSs", metadata !"operator=", metadata !"operator=", metadata !"_ZNSsaSEPKc", i32 554, metadata !382, i1 false, i1 false, i32 0, i32 0, null, i32 256, i1 false, null, null, i32 0, metadata !30, i3
!382 = metadata !{i32 786453, i32 0, null, metadata !"", i32 0, i64 0, i64 0, i64 0, i32 0, null, metadata !383, i32 0, null, null, null} ; [ DW_TAG_subroutine_type ] [line 0, size 0, align 0, offset 0] [from ]
!383 = metadata !{metadata !380, metadata !264, metadata !215}
!384 = metadata !{i32 786478, metadata !251, metadata !"_ZTSSs", metadata !"operator=", metadata !"operator=", metadata !"_ZNSsaSEc", i32 565, metadata !385, i1 false, i1 false, i32 0, i32 0, null, i32 256, i1 false, null, null, i32 0, metadata !30, i32 
!385 = metadata !{i32 786453, i32 0, null, metadata !"", i32 0, i64 0, i64 0, i64 0, i32 0, null, metadata !386, i32 0, null, null, null} ; [ DW_TAG_subroutine_type ] [line 0, size 0, align 0, offset 0] [from ]
!386 = metadata !{metadata !380, metadata !264, metadata !217}
!387 = metadata !{i32 786478, metadata !251, metadata !"_ZTSSs", metadata !"operator=", metadata !"operator=", metadata !"_ZNSsaSEOSs", i32 580, metadata !388, i1 false, i1 false, i32 0, i32 0, null, i32 256, i1 false, null, null, i32 0, metadata !30, i3
!388 = metadata !{i32 786453, i32 0, null, metadata !"", i32 0, i64 0, i64 0, i64 0, i32 0, null, metadata !389, i32 0, null, null, null} ; [ DW_TAG_subroutine_type ] [line 0, size 0, align 0, offset 0] [from ]
!389 = metadata !{metadata !380, metadata !264, metadata !238}
!390 = metadata !{i32 786478, metadata !251, metadata !"_ZTSSs", metadata !"operator=", metadata !"operator=", metadata !"_ZNSsaSESt16initializer_listIcE", i32 592, metadata !391, i1 false, i1 false, i32 0, i32 0, null, i32 256, i1 false, null, null, i32
!391 = metadata !{i32 786453, i32 0, null, metadata !"", i32 0, i64 0, i64 0, i64 0, i32 0, null, metadata !392, i32 0, null, null, null} ; [ DW_TAG_subroutine_type ] [line 0, size 0, align 0, offset 0] [from ]
!392 = metadata !{metadata !380, metadata !264, metadata !351}
!393 = metadata !{i32 786478, metadata !251, metadata !"_ZTSSs", metadata !"begin", metadata !"begin", metadata !"_ZNSs5beginEv", i32 605, metadata !394, i1 false, i1 false, i32 0, i32 0, null, i32 256, i1 false, null, null, i32 0, metadata !30, i32 605}
!394 = metadata !{i32 786453, i32 0, null, metadata !"", i32 0, i64 0, i64 0, i64 0, i32 0, null, metadata !395, i32 0, null, null, null} ; [ DW_TAG_subroutine_type ] [line 0, size 0, align 0, offset 0] [from ]
!395 = metadata !{metadata !272, metadata !264}
!396 = metadata !{i32 786478, metadata !251, metadata !"_ZTSSs", metadata !"begin", metadata !"begin", metadata !"_ZNKSs5beginEv", i32 616, metadata !397, i1 false, i1 false, i32 0, i32 0, null, i32 256, i1 false, null, null, i32 0, metadata !30, i32 616
!397 = metadata !{i32 786453, i32 0, null, metadata !"", i32 0, i64 0, i64 0, i64 0, i32 0, null, metadata !398, i32 0, null, null, null} ; [ DW_TAG_subroutine_type ] [line 0, size 0, align 0, offset 0] [from ]
!398 = metadata !{metadata !302, metadata !260}
!399 = metadata !{i32 786478, metadata !251, metadata !"_ZTSSs", metadata !"end", metadata !"end", metadata !"_ZNSs3endEv", i32 624, metadata !394, i1 false, i1 false, i32 0, i32 0, null, i32 256, i1 false, null, null, i32 0, metadata !30, i32 624} ; [ D
!400 = metadata !{i32 786478, metadata !251, metadata !"_ZTSSs", metadata !"end", metadata !"end", metadata !"_ZNKSs3endEv", i32 635, metadata !397, i1 false, i1 false, i32 0, i32 0, null, i32 256, i1 false, null, null, i32 0, metadata !30, i32 635} ; [ 
!401 = metadata !{i32 786478, metadata !251, metadata !"_ZTSSs", metadata !"rbegin", metadata !"rbegin", metadata !"_ZNSs6rbeginEv", i32 644, metadata !402, i1 false, i1 false, i32 0, i32 0, null, i32 256, i1 false, null, null, i32 0, metadata !30, i32 6
!402 = metadata !{i32 786453, i32 0, null, metadata !"", i32 0, i64 0, i64 0, i64 0, i32 0, null, metadata !403, i32 0, null, null, null} ; [ DW_TAG_subroutine_type ] [line 0, size 0, align 0, offset 0] [from ]
!403 = metadata !{metadata !404, metadata !264}
!404 = metadata !{i32 786454, metadata !248, metadata !"_ZTSSs", metadata !"reverse_iterator", i32 131, i64 0, i64 0, i64 0, i32 0, metadata !"_ZTSSt16reverse_iteratorIN9__gnu_cxx17__normal_iteratorIPcSsEEE"} ; [ DW_TAG_typedef ] [reverse_iterator] [line
!405 = metadata !{i32 786478, metadata !251, metadata !"_ZTSSs", metadata !"rbegin", metadata !"rbegin", metadata !"_ZNKSs6rbeginEv", i32 653, metadata !406, i1 false, i1 false, i32 0, i32 0, null, i32 256, i1 false, null, null, i32 0, metadata !30, i32 
!406 = metadata !{i32 786453, i32 0, null, metadata !"", i32 0, i64 0, i64 0, i64 0, i32 0, null, metadata !407, i32 0, null, null, null} ; [ DW_TAG_subroutine_type ] [line 0, size 0, align 0, offset 0] [from ]
!407 = metadata !{metadata !408, metadata !260}
!408 = metadata !{i32 786454, metadata !248, metadata !"_ZTSSs", metadata !"const_reverse_iterator", i32 130, i64 0, i64 0, i64 0, i32 0, metadata !"_ZTSSt16reverse_iteratorIN9__gnu_cxx17__normal_iteratorIPKcSsEEE"} ; [ DW_TAG_typedef ] [const_reverse_it
!409 = metadata !{i32 786478, metadata !251, metadata !"_ZTSSs", metadata !"rend", metadata !"rend", metadata !"_ZNSs4rendEv", i32 662, metadata !402, i1 false, i1 false, i32 0, i32 0, null, i32 256, i1 false, null, null, i32 0, metadata !30, i32 662} ; 
!410 = metadata !{i32 786478, metadata !251, metadata !"_ZTSSs", metadata !"rend", metadata !"rend", metadata !"_ZNKSs4rendEv", i32 671, metadata !406, i1 false, i1 false, i32 0, i32 0, null, i32 256, i1 false, null, null, i32 0, metadata !30, i32 671} ;
!411 = metadata !{i32 786478, metadata !251, metadata !"_ZTSSs", metadata !"cbegin", metadata !"cbegin", metadata !"_ZNKSs6cbeginEv", i32 680, metadata !397, i1 false, i1 false, i32 0, i32 0, null, i32 256, i1 false, null, null, i32 0, metadata !30, i32 
!412 = metadata !{i32 786478, metadata !251, metadata !"_ZTSSs", metadata !"cend", metadata !"cend", metadata !"_ZNKSs4cendEv", i32 688, metadata !397, i1 false, i1 false, i32 0, i32 0, null, i32 256, i1 false, null, null, i32 0, metadata !30, i32 688} ;
!413 = metadata !{i32 786478, metadata !251, metadata !"_ZTSSs", metadata !"crbegin", metadata !"crbegin", metadata !"_ZNKSs7crbeginEv", i32 697, metadata !406, i1 false, i1 false, i32 0, i32 0, null, i32 256, i1 false, null, null, i32 0, metadata !30, i
!414 = metadata !{i32 786478, metadata !251, metadata !"_ZTSSs", metadata !"crend", metadata !"crend", metadata !"_ZNKSs5crendEv", i32 706, metadata !406, i1 false, i1 false, i32 0, i32 0, null, i32 256, i1 false, null, null, i32 0, metadata !30, i32 706
!415 = metadata !{i32 786478, metadata !251, metadata !"_ZTSSs", metadata !"size", metadata !"size", metadata !"_ZNKSs4sizeEv", i32 715, metadata !416, i1 false, i1 false, i32 0, i32 0, null, i32 256, i1 false, null, null, i32 0, metadata !30, i32 715} ;
!416 = metadata !{i32 786453, i32 0, null, metadata !"", i32 0, i64 0, i64 0, i64 0, i32 0, null, metadata !417, i32 0, null, null, null} ; [ DW_TAG_subroutine_type ] [line 0, size 0, align 0, offset 0] [from ]
!417 = metadata !{metadata !253, metadata !260}
!418 = metadata !{i32 786478, metadata !251, metadata !"_ZTSSs", metadata !"length", metadata !"length", metadata !"_ZNKSs6lengthEv", i32 721, metadata !416, i1 false, i1 false, i32 0, i32 0, null, i32 256, i1 false, null, null, i32 0, metadata !30, i32 
!419 = metadata !{i32 786478, metadata !251, metadata !"_ZTSSs", metadata !"max_size", metadata !"max_size", metadata !"_ZNKSs8max_sizeEv", i32 726, metadata !416, i1 false, i1 false, i32 0, i32 0, null, i32 256, i1 false, null, null, i32 0, metadata !30
!420 = metadata !{i32 786478, metadata !251, metadata !"_ZTSSs", metadata !"resize", metadata !"resize", metadata !"_ZNSs6resizeEmc", i32 740, metadata !421, i1 false, i1 false, i32 0, i32 0, null, i32 256, i1 false, null, null, i32 0, metadata !30, i32 
!421 = metadata !{i32 786453, i32 0, null, metadata !"", i32 0, i64 0, i64 0, i64 0, i32 0, null, metadata !422, i32 0, null, null, null} ; [ DW_TAG_subroutine_type ] [line 0, size 0, align 0, offset 0] [from ]
!422 = metadata !{null, metadata !264, metadata !253, metadata !217}
!423 = metadata !{i32 786478, metadata !251, metadata !"_ZTSSs", metadata !"resize", metadata !"resize", metadata !"_ZNSs6resizeEm", i32 753, metadata !424, i1 false, i1 false, i32 0, i32 0, null, i32 256, i1 false, null, null, i32 0, metadata !30, i32 7
!424 = metadata !{i32 786453, i32 0, null, metadata !"", i32 0, i64 0, i64 0, i64 0, i32 0, null, metadata !425, i32 0, null, null, null} ; [ DW_TAG_subroutine_type ] [line 0, size 0, align 0, offset 0] [from ]
!425 = metadata !{null, metadata !264, metadata !253}
!426 = metadata !{i32 786478, metadata !251, metadata !"_ZTSSs", metadata !"shrink_to_fit", metadata !"shrink_to_fit", metadata !"_ZNSs13shrink_to_fitEv", i32 759, metadata !275, i1 false, i1 false, i32 0, i32 0, null, i32 256, i1 false, null, null, i32 
!427 = metadata !{i32 786478, metadata !251, metadata !"_ZTSSs", metadata !"capacity", metadata !"capacity", metadata !"_ZNKSs8capacityEv", i32 776, metadata !416, i1 false, i1 false, i32 0, i32 0, null, i32 256, i1 false, null, null, i32 0, metadata !30
!428 = metadata !{i32 786478, metadata !251, metadata !"_ZTSSs", metadata !"reserve", metadata !"reserve", metadata !"_ZNSs7reserveEm", i32 797, metadata !424, i1 false, i1 false, i32 0, i32 0, null, i32 256, i1 false, null, null, i32 0, metadata !30, i3
!429 = metadata !{i32 786478, metadata !251, metadata !"_ZTSSs", metadata !"clear", metadata !"clear", metadata !"_ZNSs5clearEv", i32 803, metadata !275, i1 false, i1 false, i32 0, i32 0, null, i32 256, i1 false, null, null, i32 0, metadata !30, i32 803}
!430 = metadata !{i32 786478, metadata !251, metadata !"_ZTSSs", metadata !"empty", metadata !"empty", metadata !"_ZNKSs5emptyEv", i32 811, metadata !431, i1 false, i1 false, i32 0, i32 0, null, i32 256, i1 false, null, null, i32 0, metadata !30, i32 811
!431 = metadata !{i32 786453, i32 0, null, metadata !"", i32 0, i64 0, i64 0, i64 0, i32 0, null, metadata !432, i32 0, null, null, null} ; [ DW_TAG_subroutine_type ] [line 0, size 0, align 0, offset 0] [from ]
!432 = metadata !{metadata !25, metadata !260}
!433 = metadata !{i32 786478, metadata !251, metadata !"_ZTSSs", metadata !"operator[]", metadata !"operator[]", metadata !"_ZNKSsixEm", i32 826, metadata !434, i1 false, i1 false, i32 0, i32 0, null, i32 256, i1 false, null, null, i32 0, metadata !30, i
!434 = metadata !{i32 786453, i32 0, null, metadata !"", i32 0, i64 0, i64 0, i64 0, i32 0, null, metadata !435, i32 0, null, null, null} ; [ DW_TAG_subroutine_type ] [line 0, size 0, align 0, offset 0] [from ]
!435 = metadata !{metadata !436, metadata !260, metadata !253}
!436 = metadata !{i32 786454, metadata !248, metadata !"_ZTSSs", metadata !"const_reference", i32 124, i64 0, i64 0, i64 0, i32 0, metadata !437} ; [ DW_TAG_typedef ] [const_reference] [line 124, size 0, align 0, offset 0] [from const_reference]
!437 = metadata !{i32 786454, metadata !248, metadata !"_ZTSSaIcE", metadata !"const_reference", i32 100, i64 0, i64 0, i64 0, i32 0, metadata !438} ; [ DW_TAG_typedef ] [const_reference] [line 100, size 0, align 0, offset 0] [from ]
!438 = metadata !{i32 786448, null, null, null, i32 0, i64 0, i64 0, i64 0, i32 0, metadata !216} ; [ DW_TAG_reference_type ] [line 0, size 0, align 0, offset 0] [from ]
!439 = metadata !{i32 786478, metadata !251, metadata !"_ZTSSs", metadata !"operator[]", metadata !"operator[]", metadata !"_ZNSsixEm", i32 843, metadata !440, i1 false, i1 false, i32 0, i32 0, null, i32 256, i1 false, null, null, i32 0, metadata !30, i3
!440 = metadata !{i32 786453, i32 0, null, metadata !"", i32 0, i64 0, i64 0, i64 0, i32 0, null, metadata !441, i32 0, null, null, null} ; [ DW_TAG_subroutine_type ] [line 0, size 0, align 0, offset 0] [from ]
!441 = metadata !{metadata !442, metadata !264, metadata !253}
!442 = metadata !{i32 786454, metadata !248, metadata !"_ZTSSs", metadata !"reference", i32 123, i64 0, i64 0, i64 0, i32 0, metadata !443} ; [ DW_TAG_typedef ] [reference] [line 123, size 0, align 0, offset 0] [from reference]
!443 = metadata !{i32 786454, metadata !248, metadata !"_ZTSSaIcE", metadata !"reference", i32 99, i64 0, i64 0, i64 0, i32 0, metadata !444} ; [ DW_TAG_typedef ] [reference] [line 99, size 0, align 0, offset 0] [from ]
!444 = metadata !{i32 786448, null, null, null, i32 0, i64 0, i64 0, i64 0, i32 0, metadata !217} ; [ DW_TAG_reference_type ] [line 0, size 0, align 0, offset 0] [from char]
!445 = metadata !{i32 786478, metadata !251, metadata !"_ZTSSs", metadata !"at", metadata !"at", metadata !"_ZNKSs2atEm", i32 864, metadata !434, i1 false, i1 false, i32 0, i32 0, null, i32 256, i1 false, null, null, i32 0, metadata !30, i32 864} ; [ DW_
!446 = metadata !{i32 786478, metadata !251, metadata !"_ZTSSs", metadata !"at", metadata !"at", metadata !"_ZNSs2atEm", i32 883, metadata !440, i1 false, i1 false, i32 0, i32 0, null, i32 256, i1 false, null, null, i32 0, metadata !30, i32 883} ; [ DW_T
!447 = metadata !{i32 786478, metadata !251, metadata !"_ZTSSs", metadata !"front", metadata !"front", metadata !"_ZNSs5frontEv", i32 897, metadata !448, i1 false, i1 false, i32 0, i32 0, null, i32 256, i1 false, null, null, i32 0, metadata !30, i32 897}
!448 = metadata !{i32 786453, i32 0, null, metadata !"", i32 0, i64 0, i64 0, i64 0, i32 0, null, metadata !449, i32 0, null, null, null} ; [ DW_TAG_subroutine_type ] [line 0, size 0, align 0, offset 0] [from ]
!449 = metadata !{metadata !442, metadata !264}
!450 = metadata !{i32 786478, metadata !251, metadata !"_ZTSSs", metadata !"front", metadata !"front", metadata !"_ZNKSs5frontEv", i32 905, metadata !451, i1 false, i1 false, i32 0, i32 0, null, i32 256, i1 false, null, null, i32 0, metadata !30, i32 905
!451 = metadata !{i32 786453, i32 0, null, metadata !"", i32 0, i64 0, i64 0, i64 0, i32 0, null, metadata !452, i32 0, null, null, null} ; [ DW_TAG_subroutine_type ] [line 0, size 0, align 0, offset 0] [from ]
!452 = metadata !{metadata !436, metadata !260}
!453 = metadata !{i32 786478, metadata !251, metadata !"_ZTSSs", metadata !"back", metadata !"back", metadata !"_ZNSs4backEv", i32 913, metadata !448, i1 false, i1 false, i32 0, i32 0, null, i32 256, i1 false, null, null, i32 0, metadata !30, i32 913} ; 
!454 = metadata !{i32 786478, metadata !251, metadata !"_ZTSSs", metadata !"back", metadata !"back", metadata !"_ZNKSs4backEv", i32 921, metadata !451, i1 false, i1 false, i32 0, i32 0, null, i32 256, i1 false, null, null, i32 0, metadata !30, i32 921} ;
!455 = metadata !{i32 786478, metadata !251, metadata !"_ZTSSs", metadata !"operator+=", metadata !"operator+=", metadata !"_ZNSspLERKSs", i32 932, metadata !378, i1 false, i1 false, i32 0, i32 0, null, i32 256, i1 false, null, null, i32 0, metadata !30,
!456 = metadata !{i32 786478, metadata !251, metadata !"_ZTSSs", metadata !"operator+=", metadata !"operator+=", metadata !"_ZNSspLEPKc", i32 941, metadata !382, i1 false, i1 false, i32 0, i32 0, null, i32 256, i1 false, null, null, i32 0, metadata !30, 
!457 = metadata !{i32 786478, metadata !251, metadata !"_ZTSSs", metadata !"operator+=", metadata !"operator+=", metadata !"_ZNSspLEc", i32 950, metadata !385, i1 false, i1 false, i32 0, i32 0, null, i32 256, i1 false, null, null, i32 0, metadata !30, i3
!458 = metadata !{i32 786478, metadata !251, metadata !"_ZTSSs", metadata !"operator+=", metadata !"operator+=", metadata !"_ZNSspLESt16initializer_listIcE", i32 963, metadata !391, i1 false, i1 false, i32 0, i32 0, null, i32 256, i1 false, null, null, i
!459 = metadata !{i32 786478, metadata !251, metadata !"_ZTSSs", metadata !"append", metadata !"append", metadata !"_ZNSs6appendERKSs", i32 973, metadata !378, i1 false, i1 false, i32 0, i32 0, null, i32 256, i1 false, null, null, i32 0, metadata !30, i3
!460 = metadata !{i32 786478, metadata !251, metadata !"_ZTSSs", metadata !"append", metadata !"append", metadata !"_ZNSs6appendERKSsmm", i32 989, metadata !461, i1 false, i1 false, i32 0, i32 0, null, i32 256, i1 false, null, null, i32 0, metadata !30, 
!461 = metadata !{i32 786453, i32 0, null, metadata !"", i32 0, i64 0, i64 0, i64 0, i32 0, null, metadata !462, i32 0, null, null, null} ; [ DW_TAG_subroutine_type ] [line 0, size 0, align 0, offset 0] [from ]
!462 = metadata !{metadata !380, metadata !264, metadata !329, metadata !253, metadata !253}
!463 = metadata !{i32 786478, metadata !251, metadata !"_ZTSSs", metadata !"append", metadata !"append", metadata !"_ZNSs6appendEPKcm", i32 998, metadata !464, i1 false, i1 false, i32 0, i32 0, null, i32 256, i1 false, null, null, i32 0, metadata !30, i3
!464 = metadata !{i32 786453, i32 0, null, metadata !"", i32 0, i64 0, i64 0, i64 0, i32 0, null, metadata !465, i32 0, null, null, null} ; [ DW_TAG_subroutine_type ] [line 0, size 0, align 0, offset 0] [from ]
!465 = metadata !{metadata !380, metadata !264, metadata !215, metadata !253}
!466 = metadata !{i32 786478, metadata !251, metadata !"_ZTSSs", metadata !"append", metadata !"append", metadata !"_ZNSs6appendEPKc", i32 1006, metadata !382, i1 false, i1 false, i32 0, i32 0, null, i32 256, i1 false, null, null, i32 0, metadata !30, i3
!467 = metadata !{i32 786478, metadata !251, metadata !"_ZTSSs", metadata !"append", metadata !"append", metadata !"_ZNSs6appendEmc", i32 1021, metadata !468, i1 false, i1 false, i32 0, i32 0, null, i32 256, i1 false, null, null, i32 0, metadata !30, i32
!468 = metadata !{i32 786453, i32 0, null, metadata !"", i32 0, i64 0, i64 0, i64 0, i32 0, null, metadata !469, i32 0, null, null, null} ; [ DW_TAG_subroutine_type ] [line 0, size 0, align 0, offset 0] [from ]
!469 = metadata !{metadata !380, metadata !264, metadata !253, metadata !217}
!470 = metadata !{i32 786478, metadata !251, metadata !"_ZTSSs", metadata !"append", metadata !"append", metadata !"_ZNSs6appendESt16initializer_listIcE", i32 1030, metadata !391, i1 false, i1 false, i32 0, i32 0, null, i32 256, i1 false, null, null, i32
!471 = metadata !{i32 786478, metadata !251, metadata !"_ZTSSs", metadata !"push_back", metadata !"push_back", metadata !"_ZNSs9push_backEc", i32 1052, metadata !472, i1 false, i1 false, i32 0, i32 0, null, i32 256, i1 false, null, null, i32 0, metadata 
!472 = metadata !{i32 786453, i32 0, null, metadata !"", i32 0, i64 0, i64 0, i64 0, i32 0, null, metadata !473, i32 0, null, null, null} ; [ DW_TAG_subroutine_type ] [line 0, size 0, align 0, offset 0] [from ]
!473 = metadata !{null, metadata !264, metadata !217}
!474 = metadata !{i32 786478, metadata !251, metadata !"_ZTSSs", metadata !"assign", metadata !"assign", metadata !"_ZNSs6assignERKSs", i32 1067, metadata !378, i1 false, i1 false, i32 0, i32 0, null, i32 256, i1 false, null, null, i32 0, metadata !30, i
!475 = metadata !{i32 786478, metadata !251, metadata !"_ZTSSs", metadata !"assign", metadata !"assign", metadata !"_ZNSs6assignEOSs", i32 1079, metadata !388, i1 false, i1 false, i32 0, i32 0, null, i32 256, i1 false, null, null, i32 0, metadata !30, i3
!476 = metadata !{i32 786478, metadata !251, metadata !"_ZTSSs", metadata !"assign", metadata !"assign", metadata !"_ZNSs6assignERKSsmm", i32 1100, metadata !461, i1 false, i1 false, i32 0, i32 0, null, i32 256, i1 false, null, null, i32 0, metadata !30,
!477 = metadata !{i32 786478, metadata !251, metadata !"_ZTSSs", metadata !"assign", metadata !"assign", metadata !"_ZNSs6assignEPKcm", i32 1116, metadata !464, i1 false, i1 false, i32 0, i32 0, null, i32 256, i1 false, null, null, i32 0, metadata !30, i
!478 = metadata !{i32 786478, metadata !251, metadata !"_ZTSSs", metadata !"assign", metadata !"assign", metadata !"_ZNSs6assignEPKc", i32 1128, metadata !382, i1 false, i1 false, i32 0, i32 0, null, i32 256, i1 false, null, null, i32 0, metadata !30, i3
!479 = metadata !{i32 786478, metadata !251, metadata !"_ZTSSs", metadata !"assign", metadata !"assign", metadata !"_ZNSs6assignEmc", i32 1144, metadata !468, i1 false, i1 false, i32 0, i32 0, null, i32 256, i1 false, null, null, i32 0, metadata !30, i32
!480 = metadata !{i32 786478, metadata !251, metadata !"_ZTSSs", metadata !"assign", metadata !"assign", metadata !"_ZNSs6assignESt16initializer_listIcE", i32 1167, metadata !391, i1 false, i1 false, i32 0, i32 0, null, i32 256, i1 false, null, null, i32
!481 = metadata !{i32 786478, metadata !251, metadata !"_ZTSSs", metadata !"insert", metadata !"insert", metadata !"_ZNSs6insertEN9__gnu_cxx17__normal_iteratorIPcSsEEmc", i32 1185, metadata !482, i1 false, i1 false, i32 0, i32 0, null, i32 256, i1 false,
!482 = metadata !{i32 786453, i32 0, null, metadata !"", i32 0, i64 0, i64 0, i64 0, i32 0, null, metadata !483, i32 0, null, null, null} ; [ DW_TAG_subroutine_type ] [line 0, size 0, align 0, offset 0] [from ]
!483 = metadata !{null, metadata !264, metadata !272, metadata !253, metadata !217}
!484 = metadata !{i32 786478, metadata !251, metadata !"_ZTSSs", metadata !"insert", metadata !"insert", metadata !"_ZNSs6insertEN9__gnu_cxx17__normal_iteratorIPcSsEESt16initializer_listIcE", i32 1213, metadata !485, i1 false, i1 false, i32 0, i32 0, nul
!485 = metadata !{i32 786453, i32 0, null, metadata !"", i32 0, i64 0, i64 0, i64 0, i32 0, null, metadata !486, i32 0, null, null, null} ; [ DW_TAG_subroutine_type ] [line 0, size 0, align 0, offset 0] [from ]
!486 = metadata !{null, metadata !264, metadata !272, metadata !351}
!487 = metadata !{i32 786478, metadata !251, metadata !"_ZTSSs", metadata !"insert", metadata !"insert", metadata !"_ZNSs6insertEmRKSs", i32 1233, metadata !488, i1 false, i1 false, i32 0, i32 0, null, i32 256, i1 false, null, null, i32 0, metadata !30, 
!488 = metadata !{i32 786453, i32 0, null, metadata !"", i32 0, i64 0, i64 0, i64 0, i32 0, null, metadata !489, i32 0, null, null, null} ; [ DW_TAG_subroutine_type ] [line 0, size 0, align 0, offset 0] [from ]
!489 = metadata !{metadata !380, metadata !264, metadata !253, metadata !329}
!490 = metadata !{i32 786478, metadata !251, metadata !"_ZTSSs", metadata !"insert", metadata !"insert", metadata !"_ZNSs6insertEmRKSsmm", i32 1255, metadata !491, i1 false, i1 false, i32 0, i32 0, null, i32 256, i1 false, null, null, i32 0, metadata !30
!491 = metadata !{i32 786453, i32 0, null, metadata !"", i32 0, i64 0, i64 0, i64 0, i32 0, null, metadata !492, i32 0, null, null, null} ; [ DW_TAG_subroutine_type ] [line 0, size 0, align 0, offset 0] [from ]
!492 = metadata !{metadata !380, metadata !264, metadata !253, metadata !329, metadata !253, metadata !253}
!493 = metadata !{i32 786478, metadata !251, metadata !"_ZTSSs", metadata !"insert", metadata !"insert", metadata !"_ZNSs6insertEmPKcm", i32 1278, metadata !494, i1 false, i1 false, i32 0, i32 0, null, i32 256, i1 false, null, null, i32 0, metadata !30, 
!494 = metadata !{i32 786453, i32 0, null, metadata !"", i32 0, i64 0, i64 0, i64 0, i32 0, null, metadata !495, i32 0, null, null, null} ; [ DW_TAG_subroutine_type ] [line 0, size 0, align 0, offset 0] [from ]
!495 = metadata !{metadata !380, metadata !264, metadata !253, metadata !215, metadata !253}
!496 = metadata !{i32 786478, metadata !251, metadata !"_ZTSSs", metadata !"insert", metadata !"insert", metadata !"_ZNSs6insertEmPKc", i32 1296, metadata !497, i1 false, i1 false, i32 0, i32 0, null, i32 256, i1 false, null, null, i32 0, metadata !30, i
!497 = metadata !{i32 786453, i32 0, null, metadata !"", i32 0, i64 0, i64 0, i64 0, i32 0, null, metadata !498, i32 0, null, null, null} ; [ DW_TAG_subroutine_type ] [line 0, size 0, align 0, offset 0] [from ]
!498 = metadata !{metadata !380, metadata !264, metadata !253, metadata !215}
!499 = metadata !{i32 786478, metadata !251, metadata !"_ZTSSs", metadata !"insert", metadata !"insert", metadata !"_ZNSs6insertEmmc", i32 1319, metadata !500, i1 false, i1 false, i32 0, i32 0, null, i32 256, i1 false, null, null, i32 0, metadata !30, i3
!500 = metadata !{i32 786453, i32 0, null, metadata !"", i32 0, i64 0, i64 0, i64 0, i32 0, null, metadata !501, i32 0, null, null, null} ; [ DW_TAG_subroutine_type ] [line 0, size 0, align 0, offset 0] [from ]
!501 = metadata !{metadata !380, metadata !264, metadata !253, metadata !253, metadata !217}
!502 = metadata !{i32 786478, metadata !251, metadata !"_ZTSSs", metadata !"insert", metadata !"insert", metadata !"_ZNSs6insertEN9__gnu_cxx17__normal_iteratorIPcSsEEc", i32 1337, metadata !503, i1 false, i1 false, i32 0, i32 0, null, i32 256, i1 false, 
!503 = metadata !{i32 786453, i32 0, null, metadata !"", i32 0, i64 0, i64 0, i64 0, i32 0, null, metadata !504, i32 0, null, null, null} ; [ DW_TAG_subroutine_type ] [line 0, size 0, align 0, offset 0] [from ]
!504 = metadata !{metadata !272, metadata !264, metadata !272, metadata !217}
!505 = metadata !{i32 786478, metadata !251, metadata !"_ZTSSs", metadata !"erase", metadata !"erase", metadata !"_ZNSs5eraseEmm", i32 1362, metadata !506, i1 false, i1 false, i32 0, i32 0, null, i32 256, i1 false, null, null, i32 0, metadata !30, i32 13
!506 = metadata !{i32 786453, i32 0, null, metadata !"", i32 0, i64 0, i64 0, i64 0, i32 0, null, metadata !507, i32 0, null, null, null} ; [ DW_TAG_subroutine_type ] [line 0, size 0, align 0, offset 0] [from ]
!507 = metadata !{metadata !380, metadata !264, metadata !253, metadata !253}
!508 = metadata !{i32 786478, metadata !251, metadata !"_ZTSSs", metadata !"erase", metadata !"erase", metadata !"_ZNSs5eraseEN9__gnu_cxx17__normal_iteratorIPcSsEE", i32 1378, metadata !509, i1 false, i1 false, i32 0, i32 0, null, i32 256, i1 false, null
!509 = metadata !{i32 786453, i32 0, null, metadata !"", i32 0, i64 0, i64 0, i64 0, i32 0, null, metadata !510, i32 0, null, null, null} ; [ DW_TAG_subroutine_type ] [line 0, size 0, align 0, offset 0] [from ]
!510 = metadata !{metadata !272, metadata !264, metadata !272}
!511 = metadata !{i32 786478, metadata !251, metadata !"_ZTSSs", metadata !"erase", metadata !"erase", metadata !"_ZNSs5eraseEN9__gnu_cxx17__normal_iteratorIPcSsEES2_", i32 1398, metadata !512, i1 false, i1 false, i32 0, i32 0, null, i32 256, i1 false, n
!512 = metadata !{i32 786453, i32 0, null, metadata !"", i32 0, i64 0, i64 0, i64 0, i32 0, null, metadata !513, i32 0, null, null, null} ; [ DW_TAG_subroutine_type ] [line 0, size 0, align 0, offset 0] [from ]
!513 = metadata !{metadata !272, metadata !264, metadata !272, metadata !272}
!514 = metadata !{i32 786478, metadata !251, metadata !"_ZTSSs", metadata !"pop_back", metadata !"pop_back", metadata !"_ZNSs8pop_backEv", i32 1407, metadata !275, i1 false, i1 false, i32 0, i32 0, null, i32 256, i1 false, null, null, i32 0, metadata !30
!515 = metadata !{i32 786478, metadata !251, metadata !"_ZTSSs", metadata !"replace", metadata !"replace", metadata !"_ZNSs7replaceEmmRKSs", i32 1429, metadata !516, i1 false, i1 false, i32 0, i32 0, null, i32 256, i1 false, null, null, i32 0, metadata !
!516 = metadata !{i32 786453, i32 0, null, metadata !"", i32 0, i64 0, i64 0, i64 0, i32 0, null, metadata !517, i32 0, null, null, null} ; [ DW_TAG_subroutine_type ] [line 0, size 0, align 0, offset 0] [from ]
!517 = metadata !{metadata !380, metadata !264, metadata !253, metadata !253, metadata !329}
!518 = metadata !{i32 786478, metadata !251, metadata !"_ZTSSs", metadata !"replace", metadata !"replace", metadata !"_ZNSs7replaceEmmRKSsmm", i32 1451, metadata !519, i1 false, i1 false, i32 0, i32 0, null, i32 256, i1 false, null, null, i32 0, metadata
!519 = metadata !{i32 786453, i32 0, null, metadata !"", i32 0, i64 0, i64 0, i64 0, i32 0, null, metadata !520, i32 0, null, null, null} ; [ DW_TAG_subroutine_type ] [line 0, size 0, align 0, offset 0] [from ]
!520 = metadata !{metadata !380, metadata !264, metadata !253, metadata !253, metadata !329, metadata !253, metadata !253}
!521 = metadata !{i32 786478, metadata !251, metadata !"_ZTSSs", metadata !"replace", metadata !"replace", metadata !"_ZNSs7replaceEmmPKcm", i32 1476, metadata !522, i1 false, i1 false, i32 0, i32 0, null, i32 256, i1 false, null, null, i32 0, metadata !
!522 = metadata !{i32 786453, i32 0, null, metadata !"", i32 0, i64 0, i64 0, i64 0, i32 0, null, metadata !523, i32 0, null, null, null} ; [ DW_TAG_subroutine_type ] [line 0, size 0, align 0, offset 0] [from ]
!523 = metadata !{metadata !380, metadata !264, metadata !253, metadata !253, metadata !215, metadata !253}
!524 = metadata !{i32 786478, metadata !251, metadata !"_ZTSSs", metadata !"replace", metadata !"replace", metadata !"_ZNSs7replaceEmmPKc", i32 1496, metadata !525, i1 false, i1 false, i32 0, i32 0, null, i32 256, i1 false, null, null, i32 0, metadata !3
!525 = metadata !{i32 786453, i32 0, null, metadata !"", i32 0, i64 0, i64 0, i64 0, i32 0, null, metadata !526, i32 0, null, null, null} ; [ DW_TAG_subroutine_type ] [line 0, size 0, align 0, offset 0] [from ]
!526 = metadata !{metadata !380, metadata !264, metadata !253, metadata !253, metadata !215}
!527 = metadata !{i32 786478, metadata !251, metadata !"_ZTSSs", metadata !"replace", metadata !"replace", metadata !"_ZNSs7replaceEmmmc", i32 1520, metadata !528, i1 false, i1 false, i32 0, i32 0, null, i32 256, i1 false, null, null, i32 0, metadata !30
!528 = metadata !{i32 786453, i32 0, null, metadata !"", i32 0, i64 0, i64 0, i64 0, i32 0, null, metadata !529, i32 0, null, null, null} ; [ DW_TAG_subroutine_type ] [line 0, size 0, align 0, offset 0] [from ]
!529 = metadata !{metadata !380, metadata !264, metadata !253, metadata !253, metadata !253, metadata !217}
!530 = metadata !{i32 786478, metadata !251, metadata !"_ZTSSs", metadata !"replace", metadata !"replace", metadata !"_ZNSs7replaceEN9__gnu_cxx17__normal_iteratorIPcSsEES2_RKSs", i32 1538, metadata !531, i1 false, i1 false, i32 0, i32 0, null, i32 256, i
!531 = metadata !{i32 786453, i32 0, null, metadata !"", i32 0, i64 0, i64 0, i64 0, i32 0, null, metadata !532, i32 0, null, null, null} ; [ DW_TAG_subroutine_type ] [line 0, size 0, align 0, offset 0] [from ]
!532 = metadata !{metadata !380, metadata !264, metadata !272, metadata !272, metadata !329}
!533 = metadata !{i32 786478, metadata !251, metadata !"_ZTSSs", metadata !"replace", metadata !"replace", metadata !"_ZNSs7replaceEN9__gnu_cxx17__normal_iteratorIPcSsEES2_PKcm", i32 1557, metadata !534, i1 false, i1 false, i32 0, i32 0, null, i32 256, i
!534 = metadata !{i32 786453, i32 0, null, metadata !"", i32 0, i64 0, i64 0, i64 0, i32 0, null, metadata !535, i32 0, null, null, null} ; [ DW_TAG_subroutine_type ] [line 0, size 0, align 0, offset 0] [from ]
!535 = metadata !{metadata !380, metadata !264, metadata !272, metadata !272, metadata !215, metadata !253}
!536 = metadata !{i32 786478, metadata !251, metadata !"_ZTSSs", metadata !"replace", metadata !"replace", metadata !"_ZNSs7replaceEN9__gnu_cxx17__normal_iteratorIPcSsEES2_PKc", i32 1578, metadata !537, i1 false, i1 false, i32 0, i32 0, null, i32 256, i1
!537 = metadata !{i32 786453, i32 0, null, metadata !"", i32 0, i64 0, i64 0, i64 0, i32 0, null, metadata !538, i32 0, null, null, null} ; [ DW_TAG_subroutine_type ] [line 0, size 0, align 0, offset 0] [from ]
!538 = metadata !{metadata !380, metadata !264, metadata !272, metadata !272, metadata !215}
!539 = metadata !{i32 786478, metadata !251, metadata !"_ZTSSs", metadata !"replace", metadata !"replace", metadata !"_ZNSs7replaceEN9__gnu_cxx17__normal_iteratorIPcSsEES2_mc", i32 1599, metadata !540, i1 false, i1 false, i32 0, i32 0, null, i32 256, i1 
!540 = metadata !{i32 786453, i32 0, null, metadata !"", i32 0, i64 0, i64 0, i64 0, i32 0, null, metadata !541, i32 0, null, null, null} ; [ DW_TAG_subroutine_type ] [line 0, size 0, align 0, offset 0] [from ]
!541 = metadata !{metadata !380, metadata !264, metadata !272, metadata !272, metadata !253, metadata !217}
!542 = metadata !{i32 786478, metadata !251, metadata !"_ZTSSs", metadata !"replace", metadata !"replace", metadata !"_ZNSs7replaceEN9__gnu_cxx17__normal_iteratorIPcSsEES2_S1_S1_", i32 1636, metadata !543, i1 false, i1 false, i32 0, i32 0, null, i32 256,
!543 = metadata !{i32 786453, i32 0, null, metadata !"", i32 0, i64 0, i64 0, i64 0, i32 0, null, metadata !544, i32 0, null, null, null} ; [ DW_TAG_subroutine_type ] [line 0, size 0, align 0, offset 0] [from ]
!544 = metadata !{metadata !380, metadata !264, metadata !272, metadata !272, metadata !259, metadata !259}
!545 = metadata !{i32 786478, metadata !251, metadata !"_ZTSSs", metadata !"replace", metadata !"replace", metadata !"_ZNSs7replaceEN9__gnu_cxx17__normal_iteratorIPcSsEES2_PKcS4_", i32 1646, metadata !546, i1 false, i1 false, i32 0, i32 0, null, i32 256,
!546 = metadata !{i32 786453, i32 0, null, metadata !"", i32 0, i64 0, i64 0, i64 0, i32 0, null, metadata !547, i32 0, null, null, null} ; [ DW_TAG_subroutine_type ] [line 0, size 0, align 0, offset 0] [from ]
!547 = metadata !{metadata !380, metadata !264, metadata !272, metadata !272, metadata !215, metadata !215}
!548 = metadata !{i32 786478, metadata !251, metadata !"_ZTSSs", metadata !"replace", metadata !"replace", metadata !"_ZNSs7replaceEN9__gnu_cxx17__normal_iteratorIPcSsEES2_S2_S2_", i32 1657, metadata !549, i1 false, i1 false, i32 0, i32 0, null, i32 256,
!549 = metadata !{i32 786453, i32 0, null, metadata !"", i32 0, i64 0, i64 0, i64 0, i32 0, null, metadata !550, i32 0, null, null, null} ; [ DW_TAG_subroutine_type ] [line 0, size 0, align 0, offset 0] [from ]
!550 = metadata !{metadata !380, metadata !264, metadata !272, metadata !272, metadata !272, metadata !272}
!551 = metadata !{i32 786478, metadata !251, metadata !"_ZTSSs", metadata !"replace", metadata !"replace", metadata !"_ZNSs7replaceEN9__gnu_cxx17__normal_iteratorIPcSsEES2_NS0_IPKcSsEES5_", i32 1667, metadata !552, i1 false, i1 false, i32 0, i32 0, null,
!552 = metadata !{i32 786453, i32 0, null, metadata !"", i32 0, i64 0, i64 0, i64 0, i32 0, null, metadata !553, i32 0, null, null, null} ; [ DW_TAG_subroutine_type ] [line 0, size 0, align 0, offset 0] [from ]
!553 = metadata !{metadata !380, metadata !264, metadata !272, metadata !272, metadata !302, metadata !302}
!554 = metadata !{i32 786478, metadata !251, metadata !"_ZTSSs", metadata !"replace", metadata !"replace", metadata !"_ZNSs7replaceEN9__gnu_cxx17__normal_iteratorIPcSsEES2_St16initializer_listIcE", i32 1692, metadata !555, i1 false, i1 false, i32 0, i32 
!555 = metadata !{i32 786453, i32 0, null, metadata !"", i32 0, i64 0, i64 0, i64 0, i32 0, null, metadata !556, i32 0, null, null, null} ; [ DW_TAG_subroutine_type ] [line 0, size 0, align 0, offset 0] [from ]
!556 = metadata !{metadata !380, metadata !264, metadata !272, metadata !272, metadata !351}
!557 = metadata !{i32 786478, metadata !251, metadata !"_ZTSSs", metadata !"_M_replace_aux", metadata !"_M_replace_aux", metadata !"_ZNSs14_M_replace_auxEmmmc", i32 1710, metadata !528, i1 false, i1 false, i32 0, i32 0, null, i32 257, i1 false, null, nul
!558 = metadata !{i32 786478, metadata !251, metadata !"_ZTSSs", metadata !"_M_replace_safe", metadata !"_M_replace_safe", metadata !"_ZNSs15_M_replace_safeEmmPKcm", i32 1714, metadata !522, i1 false, i1 false, i32 0, i32 0, null, i32 257, i1 false, null
!559 = metadata !{i32 786478, metadata !251, metadata !"_ZTSSs", metadata !"_S_construct_aux_2", metadata !"_S_construct_aux_2", metadata !"_ZNSs18_S_construct_aux_2EmcRKSaIcE", i32 1738, metadata !560, i1 false, i1 false, i32 0, i32 0, null, i32 257, i1
!560 = metadata !{i32 786453, i32 0, null, metadata !"", i32 0, i64 0, i64 0, i64 0, i32 0, null, metadata !561, i32 0, null, null, null} ; [ DW_TAG_subroutine_type ] [line 0, size 0, align 0, offset 0] [from ]
!561 = metadata !{metadata !259, metadata !253, metadata !217, metadata !324}
!562 = metadata !{i32 786478, metadata !251, metadata !"_ZTSSs", metadata !"_S_construct", metadata !"_S_construct", metadata !"_ZNSs12_S_constructEmcRKSaIcE", i32 1763, metadata !560, i1 false, i1 false, i32 0, i32 0, null, i32 257, i1 false, null, null
!563 = metadata !{i32 786478, metadata !251, metadata !"_ZTSSs", metadata !"copy", metadata !"copy", metadata !"_ZNKSs4copyEPcmm", i32 1780, metadata !564, i1 false, i1 false, i32 0, i32 0, null, i32 256, i1 false, null, null, i32 0, metadata !30, i32 17
!564 = metadata !{i32 786453, i32 0, null, metadata !"", i32 0, i64 0, i64 0, i64 0, i32 0, null, metadata !565, i32 0, null, null, null} ; [ DW_TAG_subroutine_type ] [line 0, size 0, align 0, offset 0] [from ]
!565 = metadata !{metadata !253, metadata !260, metadata !259, metadata !253, metadata !253}
!566 = metadata !{i32 786478, metadata !251, metadata !"_ZTSSs", metadata !"swap", metadata !"swap", metadata !"_ZNSs4swapERSs", i32 1790, metadata !567, i1 false, i1 false, i32 0, i32 0, null, i32 256, i1 false, null, null, i32 0, metadata !30, i32 1790
!567 = metadata !{i32 786453, i32 0, null, metadata !"", i32 0, i64 0, i64 0, i64 0, i32 0, null, metadata !568, i32 0, null, null, null} ; [ DW_TAG_subroutine_type ] [line 0, size 0, align 0, offset 0] [from ]
!568 = metadata !{null, metadata !264, metadata !380}
!569 = metadata !{i32 786478, metadata !251, metadata !"_ZTSSs", metadata !"c_str", metadata !"c_str", metadata !"_ZNKSs5c_strEv", i32 1800, metadata !570, i1 false, i1 false, i32 0, i32 0, null, i32 256, i1 false, null, null, i32 0, metadata !30, i32 18
!570 = metadata !{i32 786453, i32 0, null, metadata !"", i32 0, i64 0, i64 0, i64 0, i32 0, null, metadata !571, i32 0, null, null, null} ; [ DW_TAG_subroutine_type ] [line 0, size 0, align 0, offset 0] [from ]
!571 = metadata !{metadata !215, metadata !260}
!572 = metadata !{i32 786478, metadata !251, metadata !"_ZTSSs", metadata !"data", metadata !"data", metadata !"_ZNKSs4dataEv", i32 1810, metadata !570, i1 false, i1 false, i32 0, i32 0, null, i32 256, i1 false, null, null, i32 0, metadata !30, i32 1810}
!573 = metadata !{i32 786478, metadata !251, metadata !"_ZTSSs", metadata !"get_allocator", metadata !"get_allocator", metadata !"_ZNKSs13get_allocatorEv", i32 1817, metadata !574, i1 false, i1 false, i32 0, i32 0, null, i32 256, i1 false, null, null, i3
!574 = metadata !{i32 786453, i32 0, null, metadata !"", i32 0, i64 0, i64 0, i64 0, i32 0, null, metadata !575, i32 0, null, null, null} ; [ DW_TAG_subroutine_type ] [line 0, size 0, align 0, offset 0] [from ]
!575 = metadata !{metadata !576, metadata !260}
!576 = metadata !{i32 786454, metadata !248, metadata !"_ZTSSs", metadata !"allocator_type", i32 120, i64 0, i64 0, i64 0, i32 0, metadata !"_ZTSSaIcE"} ; [ DW_TAG_typedef ] [allocator_type] [line 120, size 0, align 0, offset 0] [from _ZTSSaIcE]
!577 = metadata !{i32 786478, metadata !251, metadata !"_ZTSSs", metadata !"find", metadata !"find", metadata !"_ZNKSs4findEPKcmm", i32 1833, metadata !578, i1 false, i1 false, i32 0, i32 0, null, i32 256, i1 false, null, null, i32 0, metadata !30, i32 1
!578 = metadata !{i32 786453, i32 0, null, metadata !"", i32 0, i64 0, i64 0, i64 0, i32 0, null, metadata !579, i32 0, null, null, null} ; [ DW_TAG_subroutine_type ] [line 0, size 0, align 0, offset 0] [from ]
!579 = metadata !{metadata !253, metadata !260, metadata !215, metadata !253, metadata !253}
!580 = metadata !{i32 786478, metadata !251, metadata !"_ZTSSs", metadata !"find", metadata !"find", metadata !"_ZNKSs4findERKSsm", i32 1846, metadata !581, i1 false, i1 false, i32 0, i32 0, null, i32 256, i1 false, null, null, i32 0, metadata !30, i32 1
!581 = metadata !{i32 786453, i32 0, null, metadata !"", i32 0, i64 0, i64 0, i64 0, i32 0, null, metadata !582, i32 0, null, null, null} ; [ DW_TAG_subroutine_type ] [line 0, size 0, align 0, offset 0] [from ]
!582 = metadata !{metadata !253, metadata !260, metadata !329, metadata !253}
!583 = metadata !{i32 786478, metadata !251, metadata !"_ZTSSs", metadata !"find", metadata !"find", metadata !"_ZNKSs4findEPKcm", i32 1861, metadata !584, i1 false, i1 false, i32 0, i32 0, null, i32 256, i1 false, null, null, i32 0, metadata !30, i32 18
!584 = metadata !{i32 786453, i32 0, null, metadata !"", i32 0, i64 0, i64 0, i64 0, i32 0, null, metadata !585, i32 0, null, null, null} ; [ DW_TAG_subroutine_type ] [line 0, size 0, align 0, offset 0] [from ]
!585 = metadata !{metadata !253, metadata !260, metadata !215, metadata !253}
!586 = metadata !{i32 786478, metadata !251, metadata !"_ZTSSs", metadata !"find", metadata !"find", metadata !"_ZNKSs4findEcm", i32 1878, metadata !587, i1 false, i1 false, i32 0, i32 0, null, i32 256, i1 false, null, null, i32 0, metadata !30, i32 1878
!587 = metadata !{i32 786453, i32 0, null, metadata !"", i32 0, i64 0, i64 0, i64 0, i32 0, null, metadata !588, i32 0, null, null, null} ; [ DW_TAG_subroutine_type ] [line 0, size 0, align 0, offset 0] [from ]
!588 = metadata !{metadata !253, metadata !260, metadata !217, metadata !253}
!589 = metadata !{i32 786478, metadata !251, metadata !"_ZTSSs", metadata !"rfind", metadata !"rfind", metadata !"_ZNKSs5rfindERKSsm", i32 1891, metadata !581, i1 false, i1 false, i32 0, i32 0, null, i32 256, i1 false, null, null, i32 0, metadata !30, i3
!590 = metadata !{i32 786478, metadata !251, metadata !"_ZTSSs", metadata !"rfind", metadata !"rfind", metadata !"_ZNKSs5rfindEPKcmm", i32 1908, metadata !578, i1 false, i1 false, i32 0, i32 0, null, i32 256, i1 false, null, null, i32 0, metadata !30, i3
!591 = metadata !{i32 786478, metadata !251, metadata !"_ZTSSs", metadata !"rfind", metadata !"rfind", metadata !"_ZNKSs5rfindEPKcm", i32 1921, metadata !584, i1 false, i1 false, i32 0, i32 0, null, i32 256, i1 false, null, null, i32 0, metadata !30, i32
!592 = metadata !{i32 786478, metadata !251, metadata !"_ZTSSs", metadata !"rfind", metadata !"rfind", metadata !"_ZNKSs5rfindEcm", i32 1938, metadata !587, i1 false, i1 false, i32 0, i32 0, null, i32 256, i1 false, null, null, i32 0, metadata !30, i32 1
!593 = metadata !{i32 786478, metadata !251, metadata !"_ZTSSs", metadata !"find_first_of", metadata !"find_first_of", metadata !"_ZNKSs13find_first_ofERKSsm", i32 1952, metadata !581, i1 false, i1 false, i32 0, i32 0, null, i32 256, i1 false, null, null
!594 = metadata !{i32 786478, metadata !251, metadata !"_ZTSSs", metadata !"find_first_of", metadata !"find_first_of", metadata !"_ZNKSs13find_first_ofEPKcmm", i32 1969, metadata !578, i1 false, i1 false, i32 0, i32 0, null, i32 256, i1 false, null, null
!595 = metadata !{i32 786478, metadata !251, metadata !"_ZTSSs", metadata !"find_first_of", metadata !"find_first_of", metadata !"_ZNKSs13find_first_ofEPKcm", i32 1982, metadata !584, i1 false, i1 false, i32 0, i32 0, null, i32 256, i1 false, null, null,
!596 = metadata !{i32 786478, metadata !251, metadata !"_ZTSSs", metadata !"find_first_of", metadata !"find_first_of", metadata !"_ZNKSs13find_first_ofEcm", i32 2001, metadata !587, i1 false, i1 false, i32 0, i32 0, null, i32 256, i1 false, null, null, i
!597 = metadata !{i32 786478, metadata !251, metadata !"_ZTSSs", metadata !"find_last_of", metadata !"find_last_of", metadata !"_ZNKSs12find_last_ofERKSsm", i32 2016, metadata !581, i1 false, i1 false, i32 0, i32 0, null, i32 256, i1 false, null, null, i
!598 = metadata !{i32 786478, metadata !251, metadata !"_ZTSSs", metadata !"find_last_of", metadata !"find_last_of", metadata !"_ZNKSs12find_last_ofEPKcmm", i32 2033, metadata !578, i1 false, i1 false, i32 0, i32 0, null, i32 256, i1 false, null, null, i
!599 = metadata !{i32 786478, metadata !251, metadata !"_ZTSSs", metadata !"find_last_of", metadata !"find_last_of", metadata !"_ZNKSs12find_last_ofEPKcm", i32 2046, metadata !584, i1 false, i1 false, i32 0, i32 0, null, i32 256, i1 false, null, null, i3
!600 = metadata !{i32 786478, metadata !251, metadata !"_ZTSSs", metadata !"find_last_of", metadata !"find_last_of", metadata !"_ZNKSs12find_last_ofEcm", i32 2065, metadata !587, i1 false, i1 false, i32 0, i32 0, null, i32 256, i1 false, null, null, i32 
!601 = metadata !{i32 786478, metadata !251, metadata !"_ZTSSs", metadata !"find_first_not_of", metadata !"find_first_not_of", metadata !"_ZNKSs17find_first_not_ofERKSsm", i32 2079, metadata !581, i1 false, i1 false, i32 0, i32 0, null, i32 256, i1 false
!602 = metadata !{i32 786478, metadata !251, metadata !"_ZTSSs", metadata !"find_first_not_of", metadata !"find_first_not_of", metadata !"_ZNKSs17find_first_not_ofEPKcmm", i32 2096, metadata !578, i1 false, i1 false, i32 0, i32 0, null, i32 256, i1 false
!603 = metadata !{i32 786478, metadata !251, metadata !"_ZTSSs", metadata !"find_first_not_of", metadata !"find_first_not_of", metadata !"_ZNKSs17find_first_not_ofEPKcm", i32 2110, metadata !584, i1 false, i1 false, i32 0, i32 0, null, i32 256, i1 false,
!604 = metadata !{i32 786478, metadata !251, metadata !"_ZTSSs", metadata !"find_first_not_of", metadata !"find_first_not_of", metadata !"_ZNKSs17find_first_not_ofEcm", i32 2127, metadata !587, i1 false, i1 false, i32 0, i32 0, null, i32 256, i1 false, n
!605 = metadata !{i32 786478, metadata !251, metadata !"_ZTSSs", metadata !"find_last_not_of", metadata !"find_last_not_of", metadata !"_ZNKSs16find_last_not_ofERKSsm", i32 2142, metadata !581, i1 false, i1 false, i32 0, i32 0, null, i32 256, i1 false, n
!606 = metadata !{i32 786478, metadata !251, metadata !"_ZTSSs", metadata !"find_last_not_of", metadata !"find_last_not_of", metadata !"_ZNKSs16find_last_not_ofEPKcmm", i32 2159, metadata !578, i1 false, i1 false, i32 0, i32 0, null, i32 256, i1 false, n
!607 = metadata !{i32 786478, metadata !251, metadata !"_ZTSSs", metadata !"find_last_not_of", metadata !"find_last_not_of", metadata !"_ZNKSs16find_last_not_ofEPKcm", i32 2173, metadata !584, i1 false, i1 false, i32 0, i32 0, null, i32 256, i1 false, nu
!608 = metadata !{i32 786478, metadata !251, metadata !"_ZTSSs", metadata !"find_last_not_of", metadata !"find_last_not_of", metadata !"_ZNKSs16find_last_not_ofEcm", i32 2190, metadata !587, i1 false, i1 false, i32 0, i32 0, null, i32 256, i1 false, null
!609 = metadata !{i32 786478, metadata !251, metadata !"_ZTSSs", metadata !"substr", metadata !"substr", metadata !"_ZNKSs6substrEmm", i32 2206, metadata !610, i1 false, i1 false, i32 0, i32 0, null, i32 256, i1 false, null, null, i32 0, metadata !30, i3
!610 = metadata !{i32 786453, i32 0, null, metadata !"", i32 0, i64 0, i64 0, i64 0, i32 0, null, metadata !611, i32 0, null, null, null} ; [ DW_TAG_subroutine_type ] [line 0, size 0, align 0, offset 0] [from ]
!611 = metadata !{metadata !247, metadata !260, metadata !253, metadata !253}
!612 = metadata !{i32 786478, metadata !251, metadata !"_ZTSSs", metadata !"compare", metadata !"compare", metadata !"_ZNKSs7compareERKSs", i32 2225, metadata !613, i1 false, i1 false, i32 0, i32 0, null, i32 256, i1 false, null, null, i32 0, metadata !3
!613 = metadata !{i32 786453, i32 0, null, metadata !"", i32 0, i64 0, i64 0, i64 0, i32 0, null, metadata !614, i32 0, null, null, null} ; [ DW_TAG_subroutine_type ] [line 0, size 0, align 0, offset 0] [from ]
!614 = metadata !{metadata !23, metadata !260, metadata !329}
!615 = metadata !{i32 786478, metadata !251, metadata !"_ZTSSs", metadata !"compare", metadata !"compare", metadata !"_ZNKSs7compareEmmRKSs", i32 2257, metadata !616, i1 false, i1 false, i32 0, i32 0, null, i32 256, i1 false, null, null, i32 0, metadata 
!616 = metadata !{i32 786453, i32 0, null, metadata !"", i32 0, i64 0, i64 0, i64 0, i32 0, null, metadata !617, i32 0, null, null, null} ; [ DW_TAG_subroutine_type ] [line 0, size 0, align 0, offset 0] [from ]
!617 = metadata !{metadata !23, metadata !260, metadata !253, metadata !253, metadata !329}
!618 = metadata !{i32 786478, metadata !251, metadata !"_ZTSSs", metadata !"compare", metadata !"compare", metadata !"_ZNKSs7compareEmmRKSsmm", i32 2283, metadata !619, i1 false, i1 false, i32 0, i32 0, null, i32 256, i1 false, null, null, i32 0, metadat
!619 = metadata !{i32 786453, i32 0, null, metadata !"", i32 0, i64 0, i64 0, i64 0, i32 0, null, metadata !620, i32 0, null, null, null} ; [ DW_TAG_subroutine_type ] [line 0, size 0, align 0, offset 0] [from ]
!620 = metadata !{metadata !23, metadata !260, metadata !253, metadata !253, metadata !329, metadata !253, metadata !253}
!621 = metadata !{i32 786478, metadata !251, metadata !"_ZTSSs", metadata !"compare", metadata !"compare", metadata !"_ZNKSs7compareEPKc", i32 2301, metadata !622, i1 false, i1 false, i32 0, i32 0, null, i32 256, i1 false, null, null, i32 0, metadata !30
!622 = metadata !{i32 786453, i32 0, null, metadata !"", i32 0, i64 0, i64 0, i64 0, i32 0, null, metadata !623, i32 0, null, null, null} ; [ DW_TAG_subroutine_type ] [line 0, size 0, align 0, offset 0] [from ]
!623 = metadata !{metadata !23, metadata !260, metadata !215}
!624 = metadata !{i32 786478, metadata !251, metadata !"_ZTSSs", metadata !"compare", metadata !"compare", metadata !"_ZNKSs7compareEmmPKc", i32 2325, metadata !625, i1 false, i1 false, i32 0, i32 0, null, i32 256, i1 false, null, null, i32 0, metadata !
!625 = metadata !{i32 786453, i32 0, null, metadata !"", i32 0, i64 0, i64 0, i64 0, i32 0, null, metadata !626, i32 0, null, null, null} ; [ DW_TAG_subroutine_type ] [line 0, size 0, align 0, offset 0] [from ]
!626 = metadata !{metadata !23, metadata !260, metadata !253, metadata !253, metadata !215}
!627 = metadata !{i32 786478, metadata !251, metadata !"_ZTSSs", metadata !"compare", metadata !"compare", metadata !"_ZNKSs7compareEmmPKcm", i32 2352, metadata !628, i1 false, i1 false, i32 0, i32 0, null, i32 256, i1 false, null, null, i32 0, metadata 
!628 = metadata !{i32 786453, i32 0, null, metadata !"", i32 0, i64 0, i64 0, i64 0, i32 0, null, metadata !629, i32 0, null, null, null} ; [ DW_TAG_subroutine_type ] [line 0, size 0, align 0, offset 0] [from ]
!629 = metadata !{metadata !23, metadata !260, metadata !253, metadata !253, metadata !215, metadata !253}
!630 = metadata !{metadata !631, metadata !632, metadata !633}
!631 = metadata !{i32 786479, null, metadata !"_CharT", metadata !217, null, i32 0, i32 0} ; [ DW_TAG_template_type_parameter ]
!632 = metadata !{i32 786479, null, metadata !"_Traits", metadata !"_ZTSSt11char_traitsIcE", null, i32 0, i32 0} ; [ DW_TAG_template_type_parameter ]
!633 = metadata !{i32 786479, null, metadata !"_Alloc", metadata !"_ZTSSaIcE", null, i32 0, i32 0} ; [ DW_TAG_template_type_parameter ]
!634 = metadata !{i32 786451, metadata !51, metadata !5, metadata !"char_traits<char>", i32 233, i64 8, i64 8, i32 0, i32 0, null, metadata !635, i32 0, null, metadata !683, metadata !"_ZTSSt11char_traitsIcE"} ; [ DW_TAG_structure_type ] [char_traits<cha
!635 = metadata !{metadata !636, metadata !643, metadata !646, metadata !647, metadata !651, metadata !654, metadata !657, metadata !661, metadata !662, metadata !665, metadata !671, metadata !674, metadata !677, metadata !680}
!636 = metadata !{i32 786478, metadata !51, metadata !"_ZTSSt11char_traitsIcE", metadata !"assign", metadata !"assign", metadata !"_ZNSt11char_traitsIcE6assignERcRKc", i32 242, metadata !637, i1 false, i1 false, i32 0, i32 0, null, i32 256, i1 false, nul
!637 = metadata !{i32 786453, i32 0, null, metadata !"", i32 0, i64 0, i64 0, i64 0, i32 0, null, metadata !638, i32 0, null, null, null} ; [ DW_TAG_subroutine_type ] [line 0, size 0, align 0, offset 0] [from ]
!638 = metadata !{null, metadata !639, metadata !641}
!639 = metadata !{i32 786448, null, null, null, i32 0, i64 0, i64 0, i64 0, i32 0, metadata !640} ; [ DW_TAG_reference_type ] [line 0, size 0, align 0, offset 0] [from char_type]
!640 = metadata !{i32 786454, metadata !51, metadata !"_ZTSSt11char_traitsIcE", metadata !"char_type", i32 235, i64 0, i64 0, i64 0, i32 0, metadata !217} ; [ DW_TAG_typedef ] [char_type] [line 235, size 0, align 0, offset 0] [from char]
!641 = metadata !{i32 786448, null, null, null, i32 0, i64 0, i64 0, i64 0, i32 0, metadata !642} ; [ DW_TAG_reference_type ] [line 0, size 0, align 0, offset 0] [from ]
!642 = metadata !{i32 786470, null, null, metadata !"", i32 0, i64 0, i64 0, i64 0, i32 0, metadata !640} ; [ DW_TAG_const_type ] [line 0, size 0, align 0, offset 0] [from char_type]
