; ModuleID = 'commission.bc'
target datalayout = "e-p:64:64:64-i1:8:8-i8:8:8-i16:16:16-i32:32:32-i64:64:64-f32:32:32-f64:64:64-v64:64:64-v128:128:128-a0:0:64-s0:64:64-f80:128:128-n8:16:32:64-S128"
target triple = "x86_64-pc-linux-gnu"

%"class.std::ios_base::Init" = type { i8 }
%struct.exit_function = type { i64, %union.anon.610 }
%union.anon.610 = type { %struct.anon.0.609 }
%struct.anon.0.609 = type { void (i8*)*, i8*, i8* }
%struct.__STDIO_FILE_STRUCT.273 = type { i16, [2 x i8], i32, i8*, i8*, i8*, i8*, i8*, i8*, %struct.__STDIO_FILE_STRUCT.273*, [2 x i32], %struct.__mbstate_t.272 }
%struct.__mbstate_t.272 = type { i32, i32 }
%"class.std::vector" = type { %"struct.std::_Vector_base" }
%"struct.std::_Vector_base" = type { %"struct.std::_Vector_base<std::basic_string<char>, std::allocator<std::basic_string<char> > >::_Vector_impl" }
%"struct.std::_Vector_base<std::basic_string<char>, std::allocator<std::basic_string<char> > >::_Vector_impl" = type { %"class.std::basic_string"*, %"class.std::basic_string"*, %"class.std::basic_string"* }
%"class.std::basic_string" = type { %"struct.std::basic_string<char, std::char_traits<char>, std::allocator<char> >::_Alloc_hider" }
%"struct.std::basic_string<char, std::char_traits<char>, std::allocator<char> >::_Alloc_hider" = type { i8* }
%"class.std::allocator.0" = type { i8 }
%"class.std::basic_stringstream" = type { %"class.std::basic_iostream.base", %"class.std::basic_stringbuf", %"class.std::basic_ios" }
%"class.std::basic_iostream.base" = type { %"class.std::basic_istream.base", %"class.std::basic_ostream.base" }
%"class.std::basic_istream.base" = type { i32 (...)**, i64 }
%"class.std::basic_ostream.base" = type { i32 (...)** }
%"class.std::basic_stringbuf" = type { %"class.std::basic_streambuf", i32, %"class.std::basic_string" }
%"class.std::basic_streambuf" = type { i32 (...)**, i8*, i8*, i8*, i8*, i8*, i8*, %"class.std::locale" }
%"class.std::locale" = type { %"class.std::locale::_Impl"* }
%"class.std::locale::_Impl" = type { i32, %"class.std::locale::facet"**, i64, %"class.std::locale::facet"**, i8** }
%"class.std::locale::facet" = type { i32 (...)**, i32 }
%"class.std::basic_ios" = type { %"class.std::ios_base", %"class.std::basic_ostream"*, i8, i8, %"class.std::basic_streambuf"*, %"class.std::ctype"*, %"class.std::num_put"*, %"class.std::num_get"* }
%"class.std::ios_base" = type { i32 (...)**, i64, i64, i32, i32, i32, %"struct.std::ios_base::_Callback_list"*, %"struct.std::ios_base::_Words", [8 x %"struct.std::ios_base::_Words"], i32, %"struct.std::ios_base::_Words"*, %"class.std::locale" }
%"struct.std::ios_base::_Callback_list" = type { %"struct.std::ios_base::_Callback_list"*, void (i32, %"class.std::ios_base"*, i32)*, i32, i32 }
%"struct.std::ios_base::_Words" = type { i8*, i64 }
%"class.std::basic_ostream" = type { i32 (...)**, %"class.std::basic_ios" }
%"class.std::ctype" = type { %"class.std::locale::facet", %struct.__locale_struct*, i8, i32*, i32*, i16*, i8, [256 x i8], [256 x i8], i8 }
%struct.__locale_struct = type { [13 x %struct.__locale_data*], i16*, i32*, i32*, [13 x i8*] }
%struct.__locale_data = type opaque
%"class.std::num_put" = type { %"class.std::locale::facet" }
%"class.std::num_get" = type { %"class.std::locale::facet" }
%"class.std::allocator" = type { i8 }
%"class.__gnu_cxx::new_allocator" = type { i8 }
%"class.std::move_iterator" = type { %"class.std::basic_string"* }
%struct.anon.617 = type { void (i32, i8*)*, i8* }
%struct.Elf64_auxv_t = type { i64, %union.anon.645 }
%union.anon.645 = type { i64 }
%struct.stat.644 = type { i64, i64, i64, i32, i32, i32, i32, i64, i64, i64, i64, i64, i64, i64, i64, i64, i64, [3 x i64] }
%struct.termios.442 = type { i32, i32, i32, i32, i8, [32 x i8], i32, i32 }
%struct.__kernel_termios = type { i32, i32, i32, i32, i8, [19 x i8] }

@_ZStL8__ioinit = internal global %"class.std::ios_base::Init" zeroinitializer, align 1
@__dso_handle = external global i8
@.str = private unnamed_addr constant [33 x i8] c"locks should be in range of 1~70\00", align 1
@.str1 = private unnamed_addr constant [34 x i8] c"stocks should be in range of 1~80\00", align 1
@.str2 = private unnamed_addr constant [35 x i8] c"barrels should be in range of 1~90\00", align 1
@.str3 = private unnamed_addr constant [1 x i8] zeroinitializer, align 1
@.str4 = private unnamed_addr constant [4 x i8] c"123\00", align 1
@.str5 = private unnamed_addr constant [4 x i8] c" & \00", align 1
@.str6 = private unnamed_addr constant [2 x i8] c"$\00", align 1
@.str7 = private unnamed_addr constant [2 x i8] c"l\00", align 1
@.str8 = private unnamed_addr constant [2 x i8] c"s\00", align 1
@.str9 = private unnamed_addr constant [2 x i8] c"b\00", align 1
@.str10 = private unnamed_addr constant [28 x i8] c"vector::_M_emplace_back_aux\00", align 1
@llvm.global_ctors = appending global [1 x { i32, void ()* }] [{ i32, void ()* } { i32 65535, void ()* @_GLOBAL__I_a }]
@__exit_count = hidden global i32 0, align 4
@__exit_function_table = hidden global %struct.exit_function* null, align 8
@__exit_slots = hidden global i32 0, align 4
@__exit_cleanup = hidden global void (i32)* null, align 8
@__libc_stack_end = global i8* null, align 8
@.str11 = private unnamed_addr constant [1 x i8] zeroinitializer, align 1
@__uclibc_progname = hidden global i8* getelementptr inbounds ([1 x i8]* @.str11, i32 0, i32 0), align 8
@__environ = global i8** null, align 8
@__pagesize = global i64 0, align 8
@__uClibc_init.been_there_done_that = internal global i32 0, align 4
@__app_fini = hidden global void ()* null, align 8
@__rtld_fini = hidden global void ()* null, align 8
@.str112 = private unnamed_addr constant [10 x i8] c"/dev/null\00", align 1
@errno = global i32 0, align 4
@h_errno = global i32 0, align 4
@_stdio_streams = internal global [3 x %struct.__STDIO_FILE_STRUCT.273] [%struct.__STDIO_FILE_STRUCT.273 { i16 544, [2 x i8] zeroinitializer, i32 0, i8* null, i8* null, i8* null, i8* null, i8* null, i8* null, %struct.__STDIO_FILE_STRUCT.273* bitcast (i8*
@stdin = global %struct.__STDIO_FILE_STRUCT.273* getelementptr inbounds ([3 x %struct.__STDIO_FILE_STRUCT.273]* @_stdio_streams, i32 0, i32 0), align 8
@stdout = global %struct.__STDIO_FILE_STRUCT.273* bitcast (i8* getelementptr (i8* bitcast ([3 x %struct.__STDIO_FILE_STRUCT.273]* @_stdio_streams to i8*), i64 80) to %struct.__STDIO_FILE_STRUCT.273*), align 8
@stderr = global %struct.__STDIO_FILE_STRUCT.273* bitcast (i8* getelementptr (i8* bitcast ([3 x %struct.__STDIO_FILE_STRUCT.273]* @_stdio_streams to i8*), i64 160) to %struct.__STDIO_FILE_STRUCT.273*), align 8
@__stdin = global %struct.__STDIO_FILE_STRUCT.273* getelementptr inbounds ([3 x %struct.__STDIO_FILE_STRUCT.273]* @_stdio_streams, i32 0, i32 0), align 8
@__stdout = global %struct.__STDIO_FILE_STRUCT.273* bitcast (i8* getelementptr (i8* bitcast ([3 x %struct.__STDIO_FILE_STRUCT.273]* @_stdio_streams to i8*), i64 80) to %struct.__STDIO_FILE_STRUCT.273*), align 8
@_stdio_openlist = global %struct.__STDIO_FILE_STRUCT.273* getelementptr inbounds ([3 x %struct.__STDIO_FILE_STRUCT.273]* @_stdio_streams, i32 0, i32 0), align 8
@.str41 = private unnamed_addr constant [60 x i8] c"/home/klee/klee_src/runtime/Intrinsic/klee_div_zero_check.c\00", align 1
@.str142 = private unnamed_addr constant [15 x i8] c"divide by zero\00", align 1
@.str243 = private unnamed_addr constant [8 x i8] c"div.err\00", align 1
@.str344 = private unnamed_addr constant [8 x i8] c"IGNORED\00", align 1
@.str14 = private unnamed_addr constant [16 x i8] c"overshift error\00", align 1
@.str25 = private unnamed_addr constant [14 x i8] c"overshift.err\00", align 1
@.str645 = private unnamed_addr constant [51 x i8] c"/home/klee/klee_src/runtime/Intrinsic/klee_range.c\00", align 1
@.str17 = private unnamed_addr constant [14 x i8] c"invalid range\00", align 1
@.str28 = private unnamed_addr constant [5 x i8] c"user\00", align 1

@environ = alias weak i8*** @__environ

define internal void @__cxx_global_var_init() section ".text.startup" {
  call void @_ZNSt8ios_base4InitC1Ev(%"class.std::ios_base::Init"* @_ZStL8__ioinit), !dbg !1765
  %1 = call i32 @__cxa_atexit(void (i8*)* bitcast (void (%"class.std::ios_base::Init"*)* @_ZNSt8ios_base4InitD1Ev to void (i8*)*), i8* getelementptr inbounds (%"class.std::ios_base::Init"* @_ZStL8__ioinit, i32 0, i32 0), i8* @__dso_handle) #9, !dbg !1765
  ret void, !dbg !1765
}

declare void @_ZNSt8ios_base4InitC1Ev(%"class.std::ios_base::Init"*) #0

; Function Attrs: nounwind
declare void @_ZNSt8ios_base4InitD1Ev(%"class.std::ios_base::Init"*) #1

; Function Attrs: uwtable
define void @_Z10commissioniii(i32 %locks, i32 %stocks, i32 %barrels) #2 {
  %1 = alloca i32, align 4
  %2 = alloca i32, align 4
  %3 = alloca i32, align 4
  %invalid_msg = alloca %"class.std::vector", align 8
  %4 = alloca %"class.std::basic_string", align 8
  %5 = alloca %"class.std::allocator.0", align 1
  %6 = alloca i8*
  %7 = alloca i32
  %8 = alloca %"class.std::basic_string", align 8
  %9 = alloca %"class.std::allocator.0", align 1
  %10 = alloca %"class.std::basic_string", align 8
  %11 = alloca %"class.std::allocator.0", align 1
  %error_msg = alloca %"class.std::basic_string", align 8
  %12 = alloca %"class.std::allocator.0", align 1
  %i = alloca i32, align 4
  %c = alloca double, align 8
  %total = alloca double, align 8
  %ss = alloca %"class.std::basic_stringstream", align 8
  %result = alloca %"class.std::basic_string", align 8
  %13 = alloca %"class.std::basic_string", align 8
  store i32 %locks, i32* %1, align 4
  store i32 %stocks, i32* %2, align 4
  store i32 %barrels, i32* %3, align 4
  call void @_ZNSt6vectorISsSaISsEEC2Ev(%"class.std::vector"* %invalid_msg), !dbg !1766
  call void @_ZNSt6vectorISsSaISsEE5clearEv(%"class.std::vector"* %invalid_msg) #9, !dbg !1768
  %14 = load i32* %1, align 4, !dbg !1769
  %15 = icmp slt i32 %14, 1, !dbg !1769
  %16 = load i32* %1, align 4, !dbg !1769
  %17 = icmp sgt i32 %16, 70, !dbg !1769
  %or.cond = or i1 %15, %17, !dbg !1769
  br i1 %or.cond, label %18, label %30, !dbg !1769

; <label>:18                                      ; preds = %0
  call void @_ZNSaIcEC1Ev(%"class.std::allocator.0"* %5) #9, !dbg !1771
  invoke void @_ZNSsC1EPKcRKSaIcE(%"class.std::basic_string"* %4, i8* getelementptr inbounds ([33 x i8]* @.str, i32 0, i32 0), %"class.std::allocator.0"* %5)
          to label %19 unwind label %21, !dbg !1771

; <label>:19                                      ; preds = %18
  invoke void @_ZNSt6vectorISsSaISsEE9push_backEOSs(%"class.std::vector"* %invalid_msg, %"class.std::basic_string"* %4)
          to label %20 unwind label %25, !dbg !1771

; <label>:20                                      ; preds = %19
  call void @_ZNSsD1Ev(%"class.std::basic_string"* %4) #9, !dbg !1771
  call void @_ZNSaIcED1Ev(%"class.std::allocator.0"* %5) #9, !dbg !1772
  br label %30, !dbg !1772

; <label>:21                                      ; preds = %18
  %22 = landingpad { i8*, i32 } personality i8* bitcast (i32 (...)* @__gxx_personality_v0 to i8*)
          cleanup, !dbg !1772
  %23 = extractvalue { i8*, i32 } %22, 0, !dbg !1772
  store i8* %23, i8** %6, !dbg !1772
  %24 = extractvalue { i8*, i32 } %22, 1, !dbg !1772
  store i32 %24, i32* %7, !dbg !1772
  br label %29, !dbg !1772

; <label>:25                                      ; preds = %19
  %26 = landingpad { i8*, i32 } personality i8* bitcast (i32 (...)* @__gxx_personality_v0 to i8*)
          cleanup, !dbg !1772
  %27 = extractvalue { i8*, i32 } %26, 0, !dbg !1772
  store i8* %27, i8** %6, !dbg !1772
  %28 = extractvalue { i8*, i32 } %26, 1, !dbg !1772
  store i32 %28, i32* %7, !dbg !1772
  call void @_ZNSsD1Ev(%"class.std::basic_string"* %4) #9, !dbg !1772
  br label %29, !dbg !1772

; <label>:29                                      ; preds = %25, %21
  call void @_ZNSaIcED1Ev(%"class.std::allocator.0"* %5) #9, !dbg !1772
  br label %147, !dbg !1772

; <label>:30                                      ; preds = %0, %20
  %31 = load i32* %2, align 4, !dbg !1773
  %32 = icmp slt i32 %31, 1, !dbg !1773
  %33 = load i32* %2, align 4, !dbg !1773
  %34 = icmp sgt i32 %33, 80, !dbg !1773
  %or.cond3 = or i1 %32, %34, !dbg !1773
  br i1 %or.cond3, label %35, label %47, !dbg !1773

; <label>:35                                      ; preds = %30
  call void @_ZNSaIcEC1Ev(%"class.std::allocator.0"* %9) #9, !dbg !1775
  invoke void @_ZNSsC1EPKcRKSaIcE(%"class.std::basic_string"* %8, i8* getelementptr inbounds ([34 x i8]* @.str1, i32 0, i32 0), %"class.std::allocator.0"* %9)
          to label %36 unwind label %38, !dbg !1775

; <label>:36                                      ; preds = %35
  invoke void @_ZNSt6vectorISsSaISsEE9push_backEOSs(%"class.std::vector"* %invalid_msg, %"class.std::basic_string"* %8)
          to label %37 unwind label %42, !dbg !1775

; <label>:37                                      ; preds = %36
  call void @_ZNSsD1Ev(%"class.std::basic_string"* %8) #9, !dbg !1775
  call void @_ZNSaIcED1Ev(%"class.std::allocator.0"* %9) #9, !dbg !1776
  br label %47, !dbg !1776

; <label>:38                                      ; preds = %35
  %39 = landingpad { i8*, i32 } personality i8* bitcast (i32 (...)* @__gxx_personality_v0 to i8*)
          cleanup, !dbg !1776
  %40 = extractvalue { i8*, i32 } %39, 0, !dbg !1776
  store i8* %40, i8** %6, !dbg !1776
  %41 = extractvalue { i8*, i32 } %39, 1, !dbg !1776
  store i32 %41, i32* %7, !dbg !1776
  br label %46, !dbg !1776

; <label>:42                                      ; preds = %36
  %43 = landingpad { i8*, i32 } personality i8* bitcast (i32 (...)* @__gxx_personality_v0 to i8*)
          cleanup, !dbg !1776
  %44 = extractvalue { i8*, i32 } %43, 0, !dbg !1776
  store i8* %44, i8** %6, !dbg !1776
  %45 = extractvalue { i8*, i32 } %43, 1, !dbg !1776
  store i32 %45, i32* %7, !dbg !1776
  call void @_ZNSsD1Ev(%"class.std::basic_string"* %8) #9, !dbg !1776
  br label %46, !dbg !1776

; <label>:46                                      ; preds = %42, %38
  call void @_ZNSaIcED1Ev(%"class.std::allocator.0"* %9) #9, !dbg !1776
  br label %147, !dbg !1776

; <label>:47                                      ; preds = %30, %37
  %48 = load i32* %3, align 4, !dbg !1777
  %49 = icmp slt i32 %48, 1, !dbg !1777
  %50 = load i32* %3, align 4, !dbg !1777
  %51 = icmp sgt i32 %50, 90, !dbg !1777
  %or.cond5 = or i1 %49, %51, !dbg !1777
  br i1 %or.cond5, label %52, label %64, !dbg !1777

; <label>:52                                      ; preds = %47
  call void @_ZNSaIcEC1Ev(%"class.std::allocator.0"* %11) #9, !dbg !1779
  invoke void @_ZNSsC1EPKcRKSaIcE(%"class.std::basic_string"* %10, i8* getelementptr inbounds ([35 x i8]* @.str2, i32 0, i32 0), %"class.std::allocator.0"* %11)
          to label %53 unwind label %55, !dbg !1779

; <label>:53                                      ; preds = %52
  invoke void @_ZNSt6vectorISsSaISsEE9push_backEOSs(%"class.std::vector"* %invalid_msg, %"class.std::basic_string"* %10)
          to label %54 unwind label %59, !dbg !1779

; <label>:54                                      ; preds = %53
  call void @_ZNSsD1Ev(%"class.std::basic_string"* %10) #9, !dbg !1779
  call void @_ZNSaIcED1Ev(%"class.std::allocator.0"* %11) #9, !dbg !1780
  br label %64, !dbg !1780

; <label>:55                                      ; preds = %52
  %56 = landingpad { i8*, i32 } personality i8* bitcast (i32 (...)* @__gxx_personality_v0 to i8*)
          cleanup, !dbg !1780
  %57 = extractvalue { i8*, i32 } %56, 0, !dbg !1780
  store i8* %57, i8** %6, !dbg !1780
  %58 = extractvalue { i8*, i32 } %56, 1, !dbg !1780
  store i32 %58, i32* %7, !dbg !1780
  br label %63, !dbg !1780

; <label>:59                                      ; preds = %53
  %60 = landingpad { i8*, i32 } personality i8* bitcast (i32 (...)* @__gxx_personality_v0 to i8*)
          cleanup, !dbg !1780
  %61 = extractvalue { i8*, i32 } %60, 0, !dbg !1780
  store i8* %61, i8** %6, !dbg !1780
  %62 = extractvalue { i8*, i32 } %60, 1, !dbg !1780
  store i32 %62, i32* %7, !dbg !1780
  call void @_ZNSsD1Ev(%"class.std::basic_string"* %10) #9, !dbg !1780
  br label %63, !dbg !1780

; <label>:63                                      ; preds = %59, %55
  call void @_ZNSaIcED1Ev(%"class.std::allocator.0"* %11) #9, !dbg !1780
  br label %147, !dbg !1780

; <label>:64                                      ; preds = %47, %54
  %65 = call i64 @_ZNKSt6vectorISsSaISsEE4sizeEv(%"class.std::vector"* %invalid_msg) #9, !dbg !1781
  %66 = icmp ugt i64 %65, 0, !dbg !1781
  br i1 %66, label %67, label %96, !dbg !1781

; <label>:67                                      ; preds = %64
  call void @_ZNSaIcEC1Ev(%"class.std::allocator.0"* %12) #9, !dbg !1783
  invoke void @_ZNSsC1EPKcRKSaIcE(%"class.std::basic_string"* %error_msg, i8* getelementptr inbounds ([1 x i8]* @.str3, i32 0, i32 0), %"class.std::allocator.0"* %12)
          to label %68 unwind label %84, !dbg !1783

; <label>:68                                      ; preds = %67
  call void @_ZNSaIcED1Ev(%"class.std::allocator.0"* %12) #9, !dbg !1783
  store i32 0, i32* %i, align 4, !dbg !1785
  br label %69, !dbg !1785

; <label>:69                                      ; preds = %92, %68
  %70 = load i32* %i, align 4, !dbg !1785
  %71 = sext i32 %70 to i64, !dbg !1785
  %72 = call i64 @_ZNKSt6vectorISsSaISsEE4sizeEv(%"class.std::vector"* %invalid_msg) #9, !dbg !1785
  %73 = icmp ult i64 %71, %72, !dbg !1785
  br i1 %73, label %74, label %95, !dbg !1785

; <label>:74                                      ; preds = %69
  %75 = invoke %"class.std::basic_string"* @_ZNSspLEPKc(%"class.std::basic_string"* %error_msg, i8* getelementptr inbounds ([4 x i8]* @.str4, i32 0, i32 0))
          to label %76 unwind label %88, !dbg !1787

; <label>:76                                      ; preds = %74
  %77 = load i32* %i, align 4, !dbg !1789
  %78 = sext i32 %77 to i64, !dbg !1789
  %79 = call i64 @_ZNKSt6vectorISsSaISsEE4sizeEv(%"class.std::vector"* %invalid_msg) #9, !dbg !1789
  %80 = sub i64 %79, 1, !dbg !1789
  %81 = icmp ne i64 %78, %80, !dbg !1789
  br i1 %81, label %82, label %92, !dbg !1789

; <label>:82                                      ; preds = %76
  %83 = invoke %"class.std::basic_string"* @_ZNSspLEPKc(%"class.std::basic_string"* %error_msg, i8* getelementptr inbounds ([4 x i8]* @.str5, i32 0, i32 0))
          to label %92 unwind label %88, !dbg !1791

; <label>:84                                      ; preds = %67
  %85 = landingpad { i8*, i32 } personality i8* bitcast (i32 (...)* @__gxx_personality_v0 to i8*)
          cleanup, !dbg !1792
  %86 = extractvalue { i8*, i32 } %85, 0, !dbg !1792
  store i8* %86, i8** %6, !dbg !1792
  %87 = extractvalue { i8*, i32 } %85, 1, !dbg !1792
  store i32 %87, i32* %7, !dbg !1792
  call void @_ZNSaIcED1Ev(%"class.std::allocator.0"* %12) #9, !dbg !1792
  br label %147, !dbg !1792

; <label>:88                                      ; preds = %82, %74
  %89 = landingpad { i8*, i32 } personality i8* bitcast (i32 (...)* @__gxx_personality_v0 to i8*)
          cleanup, !dbg !1793
  %90 = extractvalue { i8*, i32 } %89, 0, !dbg !1793
  store i8* %90, i8** %6, !dbg !1793
  %91 = extractvalue { i8*, i32 } %89, 1, !dbg !1793
  store i32 %91, i32* %7, !dbg !1793
  call void @_ZNSsD1Ev(%"class.std::basic_string"* %error_msg) #9, !dbg !1794
  br label %147, !dbg !1794

; <label>:92                                      ; preds = %76, %82
  %93 = load i32* %i, align 4, !dbg !1785
  %94 = add nsw i32 %93, 1, !dbg !1785
  store i32 %94, i32* %i, align 4, !dbg !1785
  br label %69, !dbg !1785

; <label>:95                                      ; preds = %69
  call void @_ZNSsD1Ev(%"class.std::basic_string"* %error_msg) #9, !dbg !1795
  br label %96, !dbg !1794

; <label>:96                                      ; preds = %95, %64
  store double 0.000000e+00, double* %c, align 8, !dbg !1796
  %97 = load i32* %1, align 4, !dbg !1797
  %98 = mul nsw i32 %97, 45, !dbg !1797
  %99 = load i32* %2, align 4, !dbg !1797
  %100 = mul nsw i32 %99, 30, !dbg !1797
  %101 = add nsw i32 %98, %100, !dbg !1797
  %102 = load i32* %3, align 4, !dbg !1797
  %103 = mul nsw i32 %102, 25, !dbg !1797
  %104 = add nsw i32 %101, %103, !dbg !1797
  %105 = sitofp i32 %104 to double, !dbg !1797
  store double %105, double* %total, align 8, !dbg !1797
  %106 = load double* %total, align 8, !dbg !1798
  %107 = fcmp ogt double %106, 1.800000e+03, !dbg !1798
  %108 = load double* %total, align 8, !dbg !1800
  br i1 %107, label %109, label %114, !dbg !1798

; <label>:109                                     ; preds = %96
  %110 = fsub double %108, 1.800000e+03, !dbg !1800
  %111 = fmul double %110, 2.000000e-01, !dbg !1800
  %112 = fadd double %111, 1.200000e+02, !dbg !1800
  %113 = fadd double %112, 1.000000e+02, !dbg !1800
  store double %113, double* %c, align 8, !dbg !1800
  br label %123, !dbg !1802

; <label>:114                                     ; preds = %96
  %115 = fcmp ogt double %108, 1.000000e+03, !dbg !1803
  %116 = load double* %total, align 8, !dbg !1805
  br i1 %115, label %117, label %121, !dbg !1803

; <label>:117                                     ; preds = %114
  %118 = fsub double %116, 1.000000e+03, !dbg !1805
  %119 = fmul double %118, 1.500000e-01, !dbg !1805
  %120 = fadd double %119, 1.000000e+02, !dbg !1805
  store double %120, double* %c, align 8, !dbg !1805
  br label %123, !dbg !1807

; <label>:121                                     ; preds = %114
  %122 = fmul double %116, 1.000000e-01, !dbg !1808
  store double %122, double* %c, align 8, !dbg !1808
  br label %123

; <label>:123                                     ; preds = %117, %121, %109
  %124 = call i32 @_ZStorSt13_Ios_OpenmodeS_(i32 16, i32 8), !dbg !1810
  invoke void @_ZNSt18basic_stringstreamIcSt11char_traitsIcESaIcEEC1ESt13_Ios_Openmode(%"class.std::basic_stringstream"* %ss, i32 %124)
          to label %125 unwind label %134, !dbg !1810

; <label>:125                                     ; preds = %123
  %126 = bitcast %"class.std::basic_stringstream"* %ss to i8*, !dbg !1811
  %127 = getelementptr inbounds i8* %126, i64 16, !dbg !1811
  %128 = bitcast i8* %127 to %"class.std::basic_ostream"*, !dbg !1811
  %129 = load double* %c, align 8, !dbg !1811
  %130 = invoke %"class.std::basic_ostream"* @_ZNSolsEd(%"class.std::basic_ostream"* %128, double %129)
          to label %131 unwind label %138, !dbg !1811

; <label>:131                                     ; preds = %125
  invoke void @_ZNKSt18basic_stringstreamIcSt11char_traitsIcESaIcEE3strEv(%"class.std::basic_string"* sret %13, %"class.std::basic_stringstream"* %ss)
          to label %132 unwind label %138, !dbg !1812

; <label>:132                                     ; preds = %131
  invoke void @_ZStplIcSt11char_traitsIcESaIcEESbIT_T0_T1_EPKS3_OS6_(%"class.std::basic_string"* sret %result, i8* getelementptr inbounds ([2 x i8]* @.str6, i32 0, i32 0), %"class.std::basic_string"* %13)
          to label %133 unwind label %142, !dbg !1812

; <label>:133                                     ; preds = %132
  call void @_ZNSsD1Ev(%"class.std::basic_string"* %13) #9, !dbg !1812
  call void @_ZNSsD1Ev(%"class.std::basic_string"* %result) #9, !dbg !1813
  call void @_ZNSt18basic_stringstreamIcSt11char_traitsIcESaIcEED1Ev(%"class.std::basic_stringstream"* %ss) #9, !dbg !1813
  call void @_ZNSt6vectorISsSaISsEED2Ev(%"class.std::vector"* %invalid_msg) #9, !dbg !1813
  ret void, !dbg !1813

; <label>:134                                     ; preds = %123
  %135 = landingpad { i8*, i32 } personality i8* bitcast (i32 (...)* @__gxx_personality_v0 to i8*)
          cleanup, !dbg !1810
  %136 = extractvalue { i8*, i32 } %135, 0, !dbg !1810
  store i8* %136, i8** %6, !dbg !1810
  %137 = extractvalue { i8*, i32 } %135, 1, !dbg !1810
  store i32 %137, i32* %7, !dbg !1810
  br label %147, !dbg !1810

; <label>:138                                     ; preds = %131, %125
  %139 = landingpad { i8*, i32 } personality i8* bitcast (i32 (...)* @__gxx_personality_v0 to i8*)
          cleanup, !dbg !1813
  %140 = extractvalue { i8*, i32 } %139, 0, !dbg !1813
  store i8* %140, i8** %6, !dbg !1813
  %141 = extractvalue { i8*, i32 } %139, 1, !dbg !1813
  store i32 %141, i32* %7, !dbg !1813
  br label %146, !dbg !1813

; <label>:142                                     ; preds = %132
  %143 = landingpad { i8*, i32 } personality i8* bitcast (i32 (...)* @__gxx_personality_v0 to i8*)
          cleanup, !dbg !1813
  %144 = extractvalue { i8*, i32 } %143, 0, !dbg !1813
  store i8* %144, i8** %6, !dbg !1813
  %145 = extractvalue { i8*, i32 } %143, 1, !dbg !1813
  store i32 %145, i32* %7, !dbg !1813
  call void @_ZNSsD1Ev(%"class.std::basic_string"* %13) #9, !dbg !1813
  br label %146, !dbg !1813

; <label>:146                                     ; preds = %142, %138
  call void @_ZNSt18basic_stringstreamIcSt11char_traitsIcESaIcEED1Ev(%"class.std::basic_stringstream"* %ss) #9, !dbg !1813
  br label %147, !dbg !1813

; <label>:147                                     ; preds = %146, %134, %88, %84, %63, %46, %29
  call void @_ZNSt6vectorISsSaISsEED2Ev(%"class.std::vector"* %invalid_msg) #9, !dbg !1813
  %148 = load i8** %6, !dbg !1813
  %149 = load i32* %7, !dbg !1813
  %150 = insertvalue { i8*, i32 } undef, i8* %148, 0, !dbg !1813
  %151 = insertvalue { i8*, i32 } %150, i32 %149, 1, !dbg !1813
  resume { i8*, i32 } %151, !dbg !1813
}

; Function Attrs: nounwind readnone
declare void @llvm.dbg.declare(metadata, metadata) #3

; Function Attrs: uwtable
define linkonce_odr void @_ZNSt6vectorISsSaISsEEC2Ev(%"class.std::vector"* %this) unnamed_addr #2 align 2 {
  %1 = alloca %"class.std::vector"*, align 8
  store %"class.std::vector"* %this, %"class.std::vector"** %1, align 8
  %2 = load %"class.std::vector"** %1
  %3 = bitcast %"class.std::vector"* %2 to %"struct.std::_Vector_base"*, !dbg !1814
  call void @_ZNSt12_Vector_baseISsSaISsEEC2Ev(%"struct.std::_Vector_base"* %3), !dbg !1814
  ret void, !dbg !1814
}

; Function Attrs: nounwind uwtable
define linkonce_odr void @_ZNSt6vectorISsSaISsEE5clearEv(%"class.std::vector"* %this) #4 align 2 {
  %1 = alloca %"class.std::vector"*, align 8
  store %"class.std::vector"* %this, %"class.std::vector"** %1, align 8
  %2 = load %"class.std::vector"** %1
  %3 = bitcast %"class.std::vector"* %2 to %"struct.std::_Vector_base"*, !dbg !1816
  %4 = getelementptr inbounds %"struct.std::_Vector_base"* %3, i32 0, i32 0, !dbg !1816
  %5 = getelementptr inbounds %"struct.std::_Vector_base<std::basic_string<char>, std::allocator<std::basic_string<char> > >::_Vector_impl"* %4, i32 0, i32 0, !dbg !1816
  %6 = load %"class.std::basic_string"** %5, align 8, !dbg !1816
  invoke void @_ZNSt6vectorISsSaISsEE15_M_erase_at_endEPSs(%"class.std::vector"* %2, %"class.std::basic_string"* %6)
          to label %7 unwind label %8, !dbg !1816

; <label>:7                                       ; preds = %0
  ret void, !dbg !1816

; <label>:8                                       ; preds = %0
  %9 = landingpad { i8*, i32 } personality i8* bitcast (i32 (...)* @__gxx_personality_v0 to i8*)
          catch i8* null, !dbg !1816
  %10 = extractvalue { i8*, i32 } %9, 0, !dbg !1816
  call void @__clang_call_terminate(i8* %10) #18, !dbg !1816
  unreachable, !dbg !1816
}

; Function Attrs: uwtable
define linkonce_odr void @_ZNSt6vectorISsSaISsEE9push_backEOSs(%"class.std::vector"* %this, %"class.std::basic_string"* %__x) #2 align 2 {
  %1 = alloca %"class.std::vector"*, align 8
  %2 = alloca %"class.std::basic_string"*, align 8
  store %"class.std::vector"* %this, %"class.std::vector"** %1, align 8
  store %"class.std::basic_string"* %__x, %"class.std::basic_string"** %2, align 8
  %3 = load %"class.std::vector"** %1
  %4 = load %"class.std::basic_string"** %2, align 8, !dbg !1818
  %5 = call %"class.std::basic_string"* @_ZSt4moveIRSsEONSt16remove_referenceIT_E4typeEOS2_(%"class.std::basic_string"* %4) #9, !dbg !1818
  call void @_ZNSt6vectorISsSaISsEE12emplace_backIJSsEEEvDpOT_(%"class.std::vector"* %3, %"class.std::basic_string"* %5), !dbg !1818
  ret void, !dbg !1818
}

declare void @_ZNSsC1EPKcRKSaIcE(%"class.std::basic_string"*, i8*, %"class.std::allocator.0"*) #0

; Function Attrs: nounwind
declare void @_ZNSaIcEC1Ev(%"class.std::allocator.0"*) #1

declare i32 @__gxx_personality_v0(...)

; Function Attrs: nounwind
declare void @_ZNSsD1Ev(%"class.std::basic_string"*) #1

; Function Attrs: nounwind
declare void @_ZNSaIcED1Ev(%"class.std::allocator.0"*) #1

; Function Attrs: nounwind uwtable
define linkonce_odr i64 @_ZNKSt6vectorISsSaISsEE4sizeEv(%"class.std::vector"* %this) #4 align 2 {
  %1 = alloca %"class.std::vector"*, align 8
  store %"class.std::vector"* %this, %"class.std::vector"** %1, align 8
  %2 = load %"class.std::vector"** %1
  %3 = bitcast %"class.std::vector"* %2 to %"struct.std::_Vector_base"*, !dbg !1819
  %4 = getelementptr inbounds %"struct.std::_Vector_base"* %3, i32 0, i32 0, !dbg !1819
  %5 = getelementptr inbounds %"struct.std::_Vector_base<std::basic_string<char>, std::allocator<std::basic_string<char> > >::_Vector_impl"* %4, i32 0, i32 1, !dbg !1819
  %6 = load %"class.std::basic_string"** %5, align 8, !dbg !1819
  %7 = bitcast %"class.std::vector"* %2 to %"struct.std::_Vector_base"*, !dbg !1819
  %8 = getelementptr inbounds %"struct.std::_Vector_base"* %7, i32 0, i32 0, !dbg !1819
  %9 = getelementptr inbounds %"struct.std::_Vector_base<std::basic_string<char>, std::allocator<std::basic_string<char> > >::_Vector_impl"* %8, i32 0, i32 0, !dbg !1819
  %10 = load %"class.std::basic_string"** %9, align 8, !dbg !1819
  %11 = ptrtoint %"class.std::basic_string"* %6 to i64, !dbg !1819
  %12 = ptrtoint %"class.std::basic_string"* %10 to i64, !dbg !1819
  %13 = sub i64 %11, %12, !dbg !1819
  %int_cast_to_i64 = bitcast i64 8 to i64
  call void @klee_div_zero_check(i64 %int_cast_to_i64), !dbg !1819
  %14 = sdiv exact i64 %13, 8, !dbg !1819
  ret i64 %14, !dbg !1819
}

declare %"class.std::basic_string"* @_ZNSspLEPKc(%"class.std::basic_string"*, i8*) #0

declare void @_ZNSt18basic_stringstreamIcSt11char_traitsIcESaIcEEC1ESt13_Ios_Openmode(%"class.std::basic_stringstream"*, i32) #0

; Function Attrs: inlinehint nounwind uwtable
define linkonce_odr i32 @_ZStorSt13_Ios_OpenmodeS_(i32 %__a, i32 %__b) #5 {
  %1 = alloca i32, align 4
  %2 = alloca i32, align 4
  store i32 %__a, i32* %1, align 4
  store i32 %__b, i32* %2, align 4
  %3 = load i32* %1, align 4, !dbg !1821
  %4 = load i32* %2, align 4, !dbg !1821
  %5 = or i32 %3, %4, !dbg !1821
  ret i32 %5, !dbg !1821
}

declare %"class.std::basic_ostream"* @_ZNSolsEd(%"class.std::basic_ostream"*, double) #0

; Function Attrs: inlinehint uwtable
define linkonce_odr void @_ZStplIcSt11char_traitsIcESaIcEESbIT_T0_T1_EPKS3_OS6_(%"class.std::basic_string"* noalias sret %agg.result, i8* %__lhs, %"class.std::basic_string"* %__rhs) #6 {
  %1 = alloca i8*, align 8
  %2 = alloca %"class.std::basic_string"*, align 8
  store i8* %__lhs, i8** %1, align 8
  store %"class.std::basic_string"* %__rhs, %"class.std::basic_string"** %2, align 8
  %3 = load %"class.std::basic_string"** %2, align 8, !dbg !1823
  %4 = load i8** %1, align 8, !dbg !1823
  %5 = call %"class.std::basic_string"* @_ZNSs6insertEmPKc(%"class.std::basic_string"* %3, i64 0, i8* %4), !dbg !1823
  %6 = call %"class.std::basic_string"* @_ZSt4moveIRSsEONSt16remove_referenceIT_E4typeEOS2_(%"class.std::basic_string"* %5) #9, !dbg !1823
  call void @_ZNSsC1EOSs(%"class.std::basic_string"* %agg.result, %"class.std::basic_string"* %6) #9, !dbg !1823
  ret void, !dbg !1823
}

declare void @_ZNKSt18basic_stringstreamIcSt11char_traitsIcESaIcEE3strEv(%"class.std::basic_string"* sret, %"class.std::basic_stringstream"*) #0

; Function Attrs: nounwind
declare void @_ZNSt18basic_stringstreamIcSt11char_traitsIcESaIcEED1Ev(%"class.std::basic_stringstream"*) #1

; Function Attrs: nounwind uwtable
define linkonce_odr void @_ZNSt6vectorISsSaISsEED2Ev(%"class.std::vector"* %this) unnamed_addr #4 align 2 {
  %1 = alloca %"class.std::vector"*, align 8
  %2 = alloca i8*
  %3 = alloca i32
  store %"class.std::vector"* %this, %"class.std::vector"** %1, align 8
  %4 = load %"class.std::vector"** %1
  %5 = bitcast %"class.std::vector"* %4 to %"struct.std::_Vector_base"*, !dbg !1825
  %6 = getelementptr inbounds %"struct.std::_Vector_base"* %5, i32 0, i32 0, !dbg !1825
  %7 = getelementptr inbounds %"struct.std::_Vector_base<std::basic_string<char>, std::allocator<std::basic_string<char> > >::_Vector_impl"* %6, i32 0, i32 0, !dbg !1825
  %8 = load %"class.std::basic_string"** %7, align 8, !dbg !1825
  %9 = bitcast %"class.std::vector"* %4 to %"struct.std::_Vector_base"*, !dbg !1825
  %10 = getelementptr inbounds %"struct.std::_Vector_base"* %9, i32 0, i32 0, !dbg !1825
  %11 = getelementptr inbounds %"struct.std::_Vector_base<std::basic_string<char>, std::allocator<std::basic_string<char> > >::_Vector_impl"* %10, i32 0, i32 1, !dbg !1825
  %12 = load %"class.std::basic_string"** %11, align 8, !dbg !1825
  %13 = bitcast %"class.std::vector"* %4 to %"struct.std::_Vector_base"*, !dbg !1827
  %14 = call %"class.std::allocator"* @_ZNSt12_Vector_baseISsSaISsEE19_M_get_Tp_allocatorEv(%"struct.std::_Vector_base"* %13) #9, !dbg !1827
  invoke void @_ZSt8_DestroyIPSsSsEvT_S1_RSaIT0_E(%"class.std::basic_string"* %8, %"class.std::basic_string"* %12, %"class.std::allocator"* %14)
          to label %15 unwind label %17, !dbg !1825

; <label>:15                                      ; preds = %0
  %16 = bitcast %"class.std::vector"* %4 to %"struct.std::_Vector_base"*, !dbg !1827
  call void @_ZNSt12_Vector_baseISsSaISsEED2Ev(%"struct.std::_Vector_base"* %16) #9, !dbg !1827
  ret void, !dbg !1828

; <label>:17                                      ; preds = %0
  %18 = landingpad { i8*, i32 } personality i8* bitcast (i32 (...)* @__gxx_personality_v0 to i8*)
          catch i8* null, !dbg !1827
  %19 = extractvalue { i8*, i32 } %18, 0, !dbg !1827
  store i8* %19, i8** %2, !dbg !1827
  %20 = extractvalue { i8*, i32 } %18, 1, !dbg !1827
  store i32 %20, i32* %3, !dbg !1827
  %21 = bitcast %"class.std::vector"* %4 to %"struct.std::_Vector_base"*, !dbg !1828
  call void @_ZNSt12_Vector_baseISsSaISsEED2Ev(%"struct.std::_Vector_base"* %21) #9, !dbg !1828
  %22 = load i8** %2, !dbg !1828
  call void @__clang_call_terminate(i8* %22) #18, !dbg !1828
  unreachable, !dbg !1828
}

; Function Attrs: uwtable
define i32 @__user_main() #2 {
  %1 = alloca i32, align 4
  %l = alloca i16, align 2
  %s = alloca i16, align 2
  %b = alloca i16, align 2
  store i32 0, i32* %1
  %2 = bitcast i16* %l to i8*, !dbg !1829
  call void @klee_make_symbolic(i8* %2, i64 2, i8* getelementptr inbounds ([2 x i8]* @.str7, i32 0, i32 0)), !dbg !1829
  %3 = bitcast i16* %s to i8*, !dbg !1830
  call void @klee_make_symbolic(i8* %3, i64 2, i8* getelementptr inbounds ([2 x i8]* @.str8, i32 0, i32 0)), !dbg !1830
  %4 = bitcast i16* %b to i8*, !dbg !1831
  call void @klee_make_symbolic(i8* %4, i64 2, i8* getelementptr inbounds ([2 x i8]* @.str9, i32 0, i32 0)), !dbg !1831
  %5 = load i16* %l, align 2, !dbg !1832
  %6 = sext i16 %5 to i32, !dbg !1832
  %7 = load i16* %s, align 2, !dbg !1832
  %8 = sext i16 %7 to i32, !dbg !1832
  %9 = load i16* %b, align 2, !dbg !1832
  %10 = sext i16 %9 to i32, !dbg !1832
  call void @_Z10commissioniii(i32 %6, i32 %8, i32 %10), !dbg !1832
  ret i32 0, !dbg !1833
}

declare void @klee_make_symbolic(i8*, i64, i8*) #0

; Function Attrs: nounwind
declare void @_ZNSsC1EOSs(%"class.std::basic_string"*, %"class.std::basic_string"*) #1

; Function Attrs: nounwind uwtable
define linkonce_odr %"class.std::basic_string"* @_ZSt4moveIRSsEONSt16remove_referenceIT_E4typeEOS2_(%"class.std::basic_string"* %__t) #4 {
  %1 = alloca %"class.std::basic_string"*, align 8
  store %"class.std::basic_string"* %__t, %"class.std::basic_string"** %1, align 8
  %2 = load %"class.std::basic_string"** %1, align 8, !dbg !1834
  ret %"class.std::basic_string"* %2, !dbg !1834
}

declare %"class.std::basic_string"* @_ZNSs6insertEmPKc(%"class.std::basic_string"*, i64, i8*) #0

; Function Attrs: uwtable
define linkonce_odr void @_ZNSt6vectorISsSaISsEE12emplace_backIJSsEEEvDpOT_(%"class.std::vector"* %this, %"class.std::basic_string"* %__args) #2 align 2 {
  %1 = alloca %"class.std::vector"*, align 8
  %2 = alloca %"class.std::basic_string"*, align 8
  store %"class.std::vector"* %this, %"class.std::vector"** %1, align 8
  store %"class.std::basic_string"* %__args, %"class.std::basic_string"** %2, align 8
  %3 = load %"class.std::vector"** %1
  %4 = bitcast %"class.std::vector"* %3 to %"struct.std::_Vector_base"*, !dbg !1836
  %5 = getelementptr inbounds %"struct.std::_Vector_base"* %4, i32 0, i32 0, !dbg !1836
  %6 = getelementptr inbounds %"struct.std::_Vector_base<std::basic_string<char>, std::allocator<std::basic_string<char> > >::_Vector_impl"* %5, i32 0, i32 1, !dbg !1836
  %7 = load %"class.std::basic_string"** %6, align 8, !dbg !1836
  %8 = bitcast %"class.std::vector"* %3 to %"struct.std::_Vector_base"*, !dbg !1836
  %9 = getelementptr inbounds %"struct.std::_Vector_base"* %8, i32 0, i32 0, !dbg !1836
  %10 = getelementptr inbounds %"struct.std::_Vector_base<std::basic_string<char>, std::allocator<std::basic_string<char> > >::_Vector_impl"* %9, i32 0, i32 2, !dbg !1836
  %11 = load %"class.std::basic_string"** %10, align 8, !dbg !1836
  %12 = icmp ne %"class.std::basic_string"* %7, %11, !dbg !1836
  br i1 %12, label %13, label %28, !dbg !1836

; <label>:13                                      ; preds = %0
  %14 = bitcast %"class.std::vector"* %3 to %"struct.std::_Vector_base"*, !dbg !1840
  %15 = getelementptr inbounds %"struct.std::_Vector_base"* %14, i32 0, i32 0, !dbg !1840
  %16 = bitcast %"struct.std::_Vector_base<std::basic_string<char>, std::allocator<std::basic_string<char> > >::_Vector_impl"* %15 to %"class.std::allocator"*, !dbg !1840
  %17 = bitcast %"class.std::vector"* %3 to %"struct.std::_Vector_base"*, !dbg !1840
  %18 = getelementptr inbounds %"struct.std::_Vector_base"* %17, i32 0, i32 0, !dbg !1840
  %19 = getelementptr inbounds %"struct.std::_Vector_base<std::basic_string<char>, std::allocator<std::basic_string<char> > >::_Vector_impl"* %18, i32 0, i32 1, !dbg !1840
  %20 = load %"class.std::basic_string"** %19, align 8, !dbg !1840
  %21 = load %"class.std::basic_string"** %2, align 8, !dbg !1842
  %22 = call %"class.std::basic_string"* @_ZSt7forwardISsEOT_RNSt16remove_referenceIS0_E4typeE(%"class.std::basic_string"* %21) #9, !dbg !1842
  call void @_ZNSt16allocator_traitsISaISsEE9constructISsJSsEEEDTcl12_S_constructfp_fp0_spclsr3stdE7forwardIT0_Efp1_EEERS0_PT_DpOS3_(%"class.std::allocator"* %16, %"class.std::basic_string"* %20, %"class.std::basic_string"* %22), !dbg !1840
  %23 = bitcast %"class.std::vector"* %3 to %"struct.std::_Vector_base"*, !dbg !1843
  %24 = getelementptr inbounds %"struct.std::_Vector_base"* %23, i32 0, i32 0, !dbg !1843
  %25 = getelementptr inbounds %"struct.std::_Vector_base<std::basic_string<char>, std::allocator<std::basic_string<char> > >::_Vector_impl"* %24, i32 0, i32 1, !dbg !1843
  %26 = load %"class.std::basic_string"** %25, align 8, !dbg !1843
  %27 = getelementptr inbounds %"class.std::basic_string"* %26, i32 1, !dbg !1843
  store %"class.std::basic_string"* %27, %"class.std::basic_string"** %25, align 8, !dbg !1843
  br label %31, !dbg !1844

; <label>:28                                      ; preds = %0
  %29 = load %"class.std::basic_string"** %2, align 8, !dbg !1845
  %30 = call %"class.std::basic_string"* @_ZSt7forwardISsEOT_RNSt16remove_referenceIS0_E4typeE(%"class.std::basic_string"* %29) #9, !dbg !1845
  call void @_ZNSt6vectorISsSaISsEE19_M_emplace_back_auxIJSsEEEvDpOT_(%"class.std::vector"* %3, %"class.std::basic_string"* %30), !dbg !1845
  br label %31

; <label>:31                                      ; preds = %28, %13
  ret void, !dbg !1846
}

; Function Attrs: uwtable
define linkonce_odr void @_ZNSt16allocator_traitsISaISsEE9constructISsJSsEEEDTcl12_S_constructfp_fp0_spclsr3stdE7forwardIT0_Efp1_EEERS0_PT_DpOS3_(%"class.std::allocator"* %__a, %"class.std::basic_string"* %__p, %"class.std::basic_string"* %__args) #2 ali
  %1 = alloca %"class.std::allocator"*, align 8
  %2 = alloca %"class.std::basic_string"*, align 8
  %3 = alloca %"class.std::basic_string"*, align 8
  store %"class.std::allocator"* %__a, %"class.std::allocator"** %1, align 8
  store %"class.std::basic_string"* %__p, %"class.std::basic_string"** %2, align 8
  store %"class.std::basic_string"* %__args, %"class.std::basic_string"** %3, align 8
  %4 = load %"class.std::allocator"** %1, align 8, !dbg !1847
  %5 = load %"class.std::basic_string"** %2, align 8, !dbg !1847
  %6 = load %"class.std::basic_string"** %3, align 8, !dbg !1847
  %7 = call %"class.std::basic_string"* @_ZSt7forwardISsEOT_RNSt16remove_referenceIS0_E4typeE(%"class.std::basic_string"* %6) #9, !dbg !1847
  call void @_ZNSt16allocator_traitsISaISsEE12_S_constructISsJSsEEENSt9enable_ifIXsr18__construct_helperIT_DpT0_EE5valueEvE4typeERS0_PS4_DpOS5_(%"class.std::allocator"* %4, %"class.std::basic_string"* %5, %"class.std::basic_string"* %7), !dbg !1847
  ret void, !dbg !1847
}

; Function Attrs: nounwind uwtable
define linkonce_odr %"class.std::basic_string"* @_ZSt7forwardISsEOT_RNSt16remove_referenceIS0_E4typeE(%"class.std::basic_string"* %__t) #4 {
  %1 = alloca %"class.std::basic_string"*, align 8
  store %"class.std::basic_string"* %__t, %"class.std::basic_string"** %1, align 8
  %2 = load %"class.std::basic_string"** %1, align 8, !dbg !1849
  ret %"class.std::basic_string"* %2, !dbg !1849
}

; Function Attrs: uwtable
define linkonce_odr void @_ZNSt6vectorISsSaISsEE19_M_emplace_back_auxIJSsEEEvDpOT_(%"class.std::vector"* %this, %"class.std::basic_string"* %__args) #2 align 2 {
  %1 = alloca %"class.std::vector"*, align 8
  %2 = alloca %"class.std::basic_string"*, align 8
  %__len = alloca i64, align 8
  %__new_start = alloca %"class.std::basic_string"*, align 8
  %__new_finish = alloca %"class.std::basic_string"*, align 8
  %3 = alloca i8*
  %4 = alloca i32
  store %"class.std::vector"* %this, %"class.std::vector"** %1, align 8
  store %"class.std::basic_string"* %__args, %"class.std::basic_string"** %2, align 8
  %5 = load %"class.std::vector"** %1
  %6 = call i64 @_ZNKSt6vectorISsSaISsEE12_M_check_lenEmPKc(%"class.std::vector"* %5, i64 1, i8* getelementptr inbounds ([28 x i8]* @.str10, i32 0, i32 0)), !dbg !1851
  store i64 %6, i64* %__len, align 8, !dbg !1851
  %7 = bitcast %"class.std::vector"* %5 to %"struct.std::_Vector_base"*, !dbg !1852
  %8 = load i64* %__len, align 8, !dbg !1852
  %9 = call %"class.std::basic_string"* @_ZNSt12_Vector_baseISsSaISsEE11_M_allocateEm(%"struct.std::_Vector_base"* %7, i64 %8), !dbg !1852
  store %"class.std::basic_string"* %9, %"class.std::basic_string"** %__new_start, align 8, !dbg !1852
  %10 = load %"class.std::basic_string"** %__new_start, align 8, !dbg !1853
  store %"class.std::basic_string"* %10, %"class.std::basic_string"** %__new_finish, align 8, !dbg !1853
  %11 = bitcast %"class.std::vector"* %5 to %"struct.std::_Vector_base"*, !dbg !1854
  %12 = getelementptr inbounds %"struct.std::_Vector_base"* %11, i32 0, i32 0, !dbg !1854
  %13 = bitcast %"struct.std::_Vector_base<std::basic_string<char>, std::allocator<std::basic_string<char> > >::_Vector_impl"* %12 to %"class.std::allocator"*, !dbg !1854
  %14 = load %"class.std::basic_string"** %__new_start, align 8, !dbg !1854
  %15 = call i64 @_ZNKSt6vectorISsSaISsEE4sizeEv(%"class.std::vector"* %5) #9, !dbg !1854
  %16 = getelementptr inbounds %"class.std::basic_string"* %14, i64 %15, !dbg !1854
  %17 = load %"class.std::basic_string"** %2, align 8, !dbg !1856
  %18 = call %"class.std::basic_string"* @_ZSt7forwardISsEOT_RNSt16remove_referenceIS0_E4typeE(%"class.std::basic_string"* %17) #9, !dbg !1856
  invoke void @_ZNSt16allocator_traitsISaISsEE9constructISsJSsEEEDTcl12_S_constructfp_fp0_spclsr3stdE7forwardIT0_Efp1_EEERS0_PT_DpOS3_(%"class.std::allocator"* %13, %"class.std::basic_string"* %16, %"class.std::basic_string"* %18)
          to label %19 unwind label %76, !dbg !1854

; <label>:19                                      ; preds = %0
  store %"class.std::basic_string"* null, %"class.std::basic_string"** %__new_finish, align 8, !dbg !1857
  %20 = bitcast %"class.std::vector"* %5 to %"struct.std::_Vector_base"*, !dbg !1858
  %21 = getelementptr inbounds %"struct.std::_Vector_base"* %20, i32 0, i32 0, !dbg !1858
  %22 = getelementptr inbounds %"struct.std::_Vector_base<std::basic_string<char>, std::allocator<std::basic_string<char> > >::_Vector_impl"* %21, i32 0, i32 0, !dbg !1858
  %23 = load %"class.std::basic_string"** %22, align 8, !dbg !1858
  %24 = bitcast %"class.std::vector"* %5 to %"struct.std::_Vector_base"*, !dbg !1858
  %25 = getelementptr inbounds %"struct.std::_Vector_base"* %24, i32 0, i32 0, !dbg !1858
  %26 = getelementptr inbounds %"struct.std::_Vector_base<std::basic_string<char>, std::allocator<std::basic_string<char> > >::_Vector_impl"* %25, i32 0, i32 1, !dbg !1858
  %27 = load %"class.std::basic_string"** %26, align 8, !dbg !1858
  %28 = load %"class.std::basic_string"** %__new_start, align 8, !dbg !1858
  %29 = bitcast %"class.std::vector"* %5 to %"struct.std::_Vector_base"*, !dbg !1859
  %30 = call %"class.std::allocator"* @_ZNSt12_Vector_baseISsSaISsEE19_M_get_Tp_allocatorEv(%"struct.std::_Vector_base"* %29) #9, !dbg !1859
  %31 = invoke %"class.std::basic_string"* @_ZSt34__uninitialized_move_if_noexcept_aIPSsS0_SaISsEET0_T_S3_S2_RT1_(%"class.std::basic_string"* %23, %"class.std::basic_string"* %27, %"class.std::basic_string"* %28, %"class.std::allocator"* %30)
          to label %32 unwind label %76, !dbg !1858

; <label>:32                                      ; preds = %19
  store %"class.std::basic_string"* %31, %"class.std::basic_string"** %__new_finish, align 8, !dbg !1858
  %33 = load %"class.std::basic_string"** %__new_finish, align 8, !dbg !1860
  %34 = getelementptr inbounds %"class.std::basic_string"* %33, i32 1, !dbg !1860
  store %"class.std::basic_string"* %34, %"class.std::basic_string"** %__new_finish, align 8, !dbg !1860
  %35 = bitcast %"class.std::vector"* %5 to %"struct.std::_Vector_base"*, !dbg !1861
  %36 = getelementptr inbounds %"struct.std::_Vector_base"* %35, i32 0, i32 0, !dbg !1861
  %37 = getelementptr inbounds %"struct.std::_Vector_base<std::basic_string<char>, std::allocator<std::basic_string<char> > >::_Vector_impl"* %36, i32 0, i32 0, !dbg !1861
  %38 = load %"class.std::basic_string"** %37, align 8, !dbg !1861
  %39 = bitcast %"class.std::vector"* %5 to %"struct.std::_Vector_base"*, !dbg !1861
  %40 = getelementptr inbounds %"struct.std::_Vector_base"* %39, i32 0, i32 0, !dbg !1861
  %41 = getelementptr inbounds %"struct.std::_Vector_base<std::basic_string<char>, std::allocator<std::basic_string<char> > >::_Vector_impl"* %40, i32 0, i32 1, !dbg !1861
  %42 = load %"class.std::basic_string"** %41, align 8, !dbg !1861
  %43 = bitcast %"class.std::vector"* %5 to %"struct.std::_Vector_base"*, !dbg !1862
  %44 = call %"class.std::allocator"* @_ZNSt12_Vector_baseISsSaISsEE19_M_get_Tp_allocatorEv(%"struct.std::_Vector_base"* %43) #9, !dbg !1862
  call void @_ZSt8_DestroyIPSsSsEvT_S1_RSaIT0_E(%"class.std::basic_string"* %38, %"class.std::basic_string"* %42, %"class.std::allocator"* %44), !dbg !1863
  %45 = bitcast %"class.std::vector"* %5 to %"struct.std::_Vector_base"*, !dbg !1864
  %46 = bitcast %"class.std::vector"* %5 to %"struct.std::_Vector_base"*, !dbg !1864
  %47 = getelementptr inbounds %"struct.std::_Vector_base"* %46, i32 0, i32 0, !dbg !1864
  %48 = getelementptr inbounds %"struct.std::_Vector_base<std::basic_string<char>, std::allocator<std::basic_string<char> > >::_Vector_impl"* %47, i32 0, i32 0, !dbg !1864
  %49 = load %"class.std::basic_string"** %48, align 8, !dbg !1864
  %50 = bitcast %"class.std::vector"* %5 to %"struct.std::_Vector_base"*, !dbg !1864
  %51 = getelementptr inbounds %"struct.std::_Vector_base"* %50, i32 0, i32 0, !dbg !1864
  %52 = getelementptr inbounds %"struct.std::_Vector_base<std::basic_string<char>, std::allocator<std::basic_string<char> > >::_Vector_impl"* %51, i32 0, i32 2, !dbg !1864
  %53 = load %"class.std::basic_string"** %52, align 8, !dbg !1864
  %54 = bitcast %"class.std::vector"* %5 to %"struct.std::_Vector_base"*, !dbg !1864
  %55 = getelementptr inbounds %"struct.std::_Vector_base"* %54, i32 0, i32 0, !dbg !1864
  %56 = getelementptr inbounds %"struct.std::_Vector_base<std::basic_string<char>, std::allocator<std::basic_string<char> > >::_Vector_impl"* %55, i32 0, i32 0, !dbg !1864
  %57 = load %"class.std::basic_string"** %56, align 8, !dbg !1864
  %58 = ptrtoint %"class.std::basic_string"* %53 to i64, !dbg !1864
  %59 = ptrtoint %"class.std::basic_string"* %57 to i64, !dbg !1864
  %60 = sub i64 %58, %59, !dbg !1864
  %int_cast_to_i64 = bitcast i64 8 to i64
  call void @klee_div_zero_check(i64 %int_cast_to_i64), !dbg !1864
  %61 = sdiv exact i64 %60, 8, !dbg !1864
  call void @_ZNSt12_Vector_baseISsSaISsEE13_M_deallocateEPSsm(%"struct.std::_Vector_base"* %45, %"class.std::basic_string"* %49, i64 %61), !dbg !1864
  %62 = load %"class.std::basic_string"** %__new_start, align 8, !dbg !1865
  %63 = bitcast %"class.std::vector"* %5 to %"struct.std::_Vector_base"*, !dbg !1865
  %64 = getelementptr inbounds %"struct.std::_Vector_base"* %63, i32 0, i32 0, !dbg !1865
  %65 = getelementptr inbounds %"struct.std::_Vector_base<std::basic_string<char>, std::allocator<std::basic_string<char> > >::_Vector_impl"* %64, i32 0, i32 0, !dbg !1865
  store %"class.std::basic_string"* %62, %"class.std::basic_string"** %65, align 8, !dbg !1865
  %66 = load %"class.std::basic_string"** %__new_finish, align 8, !dbg !1866
  %67 = bitcast %"class.std::vector"* %5 to %"struct.std::_Vector_base"*, !dbg !1866
  %68 = getelementptr inbounds %"struct.std::_Vector_base"* %67, i32 0, i32 0, !dbg !1866
  %69 = getelementptr inbounds %"struct.std::_Vector_base<std::basic_string<char>, std::allocator<std::basic_string<char> > >::_Vector_impl"* %68, i32 0, i32 1, !dbg !1866
  store %"class.std::basic_string"* %66, %"class.std::basic_string"** %69, align 8, !dbg !1866
  %70 = load %"class.std::basic_string"** %__new_start, align 8, !dbg !1867
  %71 = load i64* %__len, align 8, !dbg !1867
  %72 = getelementptr inbounds %"class.std::basic_string"* %70, i64 %71, !dbg !1867
  %73 = bitcast %"class.std::vector"* %5 to %"struct.std::_Vector_base"*, !dbg !1867
  %74 = getelementptr inbounds %"struct.std::_Vector_base"* %73, i32 0, i32 0, !dbg !1867
  %75 = getelementptr inbounds %"struct.std::_Vector_base<std::basic_string<char>, std::allocator<std::basic_string<char> > >::_Vector_impl"* %74, i32 0, i32 2, !dbg !1867
  store %"class.std::basic_string"* %72, %"class.std::basic_string"** %75, align 8, !dbg !1867
  ret void, !dbg !1868

; <label>:76                                      ; preds = %19, %0
  %77 = landingpad { i8*, i32 } personality i8* bitcast (i32 (...)* @__gxx_personality_v0 to i8*)
          catch i8* null, !dbg !1869
  %78 = extractvalue { i8*, i32 } %77, 0, !dbg !1869
  store i8* %78, i8** %3, !dbg !1869
  %79 = extractvalue { i8*, i32 } %77, 1, !dbg !1869
  store i32 %79, i32* %4, !dbg !1869
  %80 = load i8** %3, !dbg !1870
  %81 = call i8* @__cxa_begin_catch(i8* %80) #9, !dbg !1870
  %82 = load %"class.std::basic_string"** %__new_finish, align 8, !dbg !1871
  %83 = icmp ne %"class.std::basic_string"* %82, null, !dbg !1871
  br i1 %83, label %95, label %84, !dbg !1871

; <label>:84                                      ; preds = %76
  %85 = bitcast %"class.std::vector"* %5 to %"struct.std::_Vector_base"*, !dbg !1874
  %86 = getelementptr inbounds %"struct.std::_Vector_base"* %85, i32 0, i32 0, !dbg !1874
  %87 = bitcast %"struct.std::_Vector_base<std::basic_string<char>, std::allocator<std::basic_string<char> > >::_Vector_impl"* %86 to %"class.std::allocator"*, !dbg !1874
  %88 = load %"class.std::basic_string"** %__new_start, align 8, !dbg !1874
  %89 = call i64 @_ZNKSt6vectorISsSaISsEE4sizeEv(%"class.std::vector"* %5) #9, !dbg !1874
  %90 = getelementptr inbounds %"class.std::basic_string"* %88, i64 %89, !dbg !1874
  invoke void @_ZNSt16allocator_traitsISaISsEE7destroyISsEEvRS0_PT_(%"class.std::allocator"* %87, %"class.std::basic_string"* %90)
          to label %100 unwind label %91, !dbg !1874

; <label>:91                                      ; preds = %104, %100, %95, %84
  %92 = landingpad { i8*, i32 } personality i8* bitcast (i32 (...)* @__gxx_personality_v0 to i8*)
          cleanup, !dbg !1875
  %93 = extractvalue { i8*, i32 } %92, 0, !dbg !1875
  store i8* %93, i8** %3, !dbg !1875
  %94 = extractvalue { i8*, i32 } %92, 1, !dbg !1875
  store i32 %94, i32* %4, !dbg !1875
  invoke void @__cxa_end_catch()
          to label %105 unwind label %110, !dbg !1868

; <label>:95                                      ; preds = %76
  %96 = load %"class.std::basic_string"** %__new_start, align 8, !dbg !1876
  %97 = load %"class.std::basic_string"** %__new_finish, align 8, !dbg !1876
  %98 = bitcast %"class.std::vector"* %5 to %"struct.std::_Vector_base"*, !dbg !1876
  %99 = call %"class.std::allocator"* @_ZNSt12_Vector_baseISsSaISsEE19_M_get_Tp_allocatorEv(%"struct.std::_Vector_base"* %98) #9, !dbg !1876
  invoke void @_ZSt8_DestroyIPSsSsEvT_S1_RSaIT0_E(%"class.std::basic_string"* %96, %"class.std::basic_string"* %97, %"class.std::allocator"* %99)
          to label %100 unwind label %91, !dbg !1877

; <label>:100                                     ; preds = %95, %84
  %101 = bitcast %"class.std::vector"* %5 to %"struct.std::_Vector_base"*, !dbg !1878
  %102 = load %"class.std::basic_string"** %__new_start, align 8, !dbg !1878
  %103 = load i64* %__len, align 8, !dbg !1878
  invoke void @_ZNSt12_Vector_baseISsSaISsEE13_M_deallocateEPSsm(%"struct.std::_Vector_base"* %101, %"class.std::basic_string"* %102, i64 %103)
          to label %104 unwind label %91, !dbg !1878

; <label>:104                                     ; preds = %100
  invoke void @__cxa_rethrow() #19
          to label %113 unwind label %91, !dbg !1879

; <label>:105                                     ; preds = %91
  %106 = load i8** %3, !dbg !1868
  %107 = load i32* %4, !dbg !1868
  %108 = insertvalue { i8*, i32 } undef, i8* %106, 0, !dbg !1868
  %109 = insertvalue { i8*, i32 } %108, i32 %107, 1, !dbg !1868
  resume { i8*, i32 } %109, !dbg !1868

; <label>:110                                     ; preds = %91
  %111 = landingpad { i8*, i32 } personality i8* bitcast (i32 (...)* @__gxx_personality_v0 to i8*)
          catch i8* null, !dbg !1868
  %112 = extractvalue { i8*, i32 } %111, 0, !dbg !1868
  call void @__clang_call_terminate(i8* %112) #18, !dbg !1868
  unreachable, !dbg !1868

; <label>:113                                     ; preds = %104
  unreachable
}

; Function Attrs: uwtable
define linkonce_odr i64 @_ZNKSt6vectorISsSaISsEE12_M_check_lenEmPKc(%"class.std::vector"* %this, i64 %__n, i8* %__s) #2 align 2 {
  %1 = alloca %"class.std::vector"*, align 8
  %2 = alloca i64, align 8
  %3 = alloca i8*, align 8
  %__len = alloca i64, align 8
  %4 = alloca i64, align 8
  store %"class.std::vector"* %this, %"class.std::vector"** %1, align 8
  store i64 %__n, i64* %2, align 8
  store i8* %__s, i8** %3, align 8
  %5 = load %"class.std::vector"** %1
  %6 = call i64 @_ZNKSt6vectorISsSaISsEE8max_sizeEv(%"class.std::vector"* %5) #9, !dbg !1880
  %7 = call i64 @_ZNKSt6vectorISsSaISsEE4sizeEv(%"class.std::vector"* %5) #9, !dbg !1880
  %8 = sub i64 %6, %7, !dbg !1880
  %9 = load i64* %2, align 8, !dbg !1880
  %10 = icmp ult i64 %8, %9, !dbg !1880
  br i1 %10, label %11, label %13, !dbg !1880

; <label>:11                                      ; preds = %0
  %12 = load i8** %3, align 8, !dbg !1883
  call void @_ZSt20__throw_length_errorPKc(i8* %12) #19, !dbg !1883
  unreachable, !dbg !1883

; <label>:13                                      ; preds = %0
  %14 = call i64 @_ZNKSt6vectorISsSaISsEE4sizeEv(%"class.std::vector"* %5) #9, !dbg !1884
  %15 = call i64 @_ZNKSt6vectorISsSaISsEE4sizeEv(%"class.std::vector"* %5) #9, !dbg !1884
  store i64 %15, i64* %4, !dbg !1884
  %16 = call i64* @_ZSt3maxImERKT_S2_S2_(i64* %4, i64* %2), !dbg !1885
  %17 = load i64* %16, !dbg !1885
  %18 = add i64 %14, %17, !dbg !1885
  store i64 %18, i64* %__len, align 8, !dbg !1885
  %19 = load i64* %__len, align 8, !dbg !1886
  %20 = call i64 @_ZNKSt6vectorISsSaISsEE4sizeEv(%"class.std::vector"* %5) #9, !dbg !1886
  %21 = icmp ult i64 %19, %20, !dbg !1886
  br i1 %21, label %26, label %22, !dbg !1886

; <label>:22                                      ; preds = %13
  %23 = load i64* %__len, align 8, !dbg !1886
  %24 = call i64 @_ZNKSt6vectorISsSaISsEE8max_sizeEv(%"class.std::vector"* %5) #9, !dbg !1886
  %25 = icmp ugt i64 %23, %24, !dbg !1886
  br i1 %25, label %26, label %28, !dbg !1886

; <label>:26                                      ; preds = %22, %13
  %27 = call i64 @_ZNKSt6vectorISsSaISsEE8max_sizeEv(%"class.std::vector"* %5) #9, !dbg !1886
  br label %30, !dbg !1886

; <label>:28                                      ; preds = %22
  %29 = load i64* %__len, align 8, !dbg !1886
  br label %30, !dbg !1886

; <label>:30                                      ; preds = %28, %26
  %31 = phi i64 [ %27, %26 ], [ %29, %28 ], !dbg !1886
  ret i64 %31, !dbg !1886
}

; Function Attrs: uwtable
define linkonce_odr %"class.std::basic_string"* @_ZNSt12_Vector_baseISsSaISsEE11_M_allocateEm(%"struct.std::_Vector_base"* %this, i64 %__n) #2 align 2 {
  %1 = alloca %"struct.std::_Vector_base"*, align 8
  %2 = alloca i64, align 8
  store %"struct.std::_Vector_base"* %this, %"struct.std::_Vector_base"** %1, align 8
  store i64 %__n, i64* %2, align 8
  %3 = load %"struct.std::_Vector_base"** %1
  %4 = load i64* %2, align 8, !dbg !1887
  %5 = icmp ne i64 %4, 0, !dbg !1887
  br i1 %5, label %6, label %11, !dbg !1887

; <label>:6                                       ; preds = %0
  %7 = getelementptr inbounds %"struct.std::_Vector_base"* %3, i32 0, i32 0, !dbg !1887
  %8 = bitcast %"struct.std::_Vector_base<std::basic_string<char>, std::allocator<std::basic_string<char> > >::_Vector_impl"* %7 to %"class.__gnu_cxx::new_allocator"*, !dbg !1887
  %9 = load i64* %2, align 8, !dbg !1887
  %10 = call %"class.std::basic_string"* @_ZN9__gnu_cxx13new_allocatorISsE8allocateEmPKv(%"class.__gnu_cxx::new_allocator"* %8, i64 %9, i8* null), !dbg !1887
  br label %11, !dbg !1887

; <label>:11                                      ; preds = %0, %6
  %12 = phi %"class.std::basic_string"* [ %10, %6 ], [ null, %0 ], !dbg !1887
  ret %"class.std::basic_string"* %12, !dbg !1887
}

; Function Attrs: inlinehint uwtable
define linkonce_odr %"class.std::basic_string"* @_ZSt34__uninitialized_move_if_noexcept_aIPSsS0_SaISsEET0_T_S3_S2_RT1_(%"class.std::basic_string"* %__first, %"class.std::basic_string"* %__last, %"class.std::basic_string"* %__result, %"class.std::allocato
  %1 = alloca %"class.std::basic_string"*, align 8
  %2 = alloca %"class.std::basic_string"*, align 8
  %3 = alloca %"class.std::basic_string"*, align 8
  %4 = alloca %"class.std::allocator"*, align 8
  %5 = alloca %"class.std::move_iterator", align 8
  %6 = alloca %"class.std::move_iterator", align 8
  store %"class.std::basic_string"* %__first, %"class.std::basic_string"** %1, align 8
  store %"class.std::basic_string"* %__last, %"class.std::basic_string"** %2, align 8
  store %"class.std::basic_string"* %__result, %"class.std::basic_string"** %3, align 8
  store %"class.std::allocator"* %__alloc, %"class.std::allocator"** %4, align 8
  %7 = load %"class.std::basic_string"** %1, align 8, !dbg !1889
  %8 = call %"class.std::basic_string"* @_ZSt32__make_move_if_noexcept_iteratorIPSsSt13move_iteratorIS0_EET0_T_(%"class.std::basic_string"* %7), !dbg !1889
  %9 = getelementptr %"class.std::move_iterator"* %5, i32 0, i32 0, !dbg !1889
  store %"class.std::basic_string"* %8, %"class.std::basic_string"** %9, !dbg !1889
  %10 = load %"class.std::basic_string"** %2, align 8, !dbg !1891
  %11 = call %"class.std::basic_string"* @_ZSt32__make_move_if_noexcept_iteratorIPSsSt13move_iteratorIS0_EET0_T_(%"class.std::basic_string"* %10), !dbg !1891
  %12 = getelementptr %"class.std::move_iterator"* %6, i32 0, i32 0, !dbg !1891
  store %"class.std::basic_string"* %11, %"class.std::basic_string"** %12, !dbg !1891
  %13 = load %"class.std::basic_string"** %3, align 8, !dbg !1892
  %14 = load %"class.std::allocator"** %4, align 8, !dbg !1892
  %15 = getelementptr %"class.std::move_iterator"* %5, i32 0, i32 0, !dbg !1892
  %16 = load %"class.std::basic_string"** %15, !dbg !1892
  %17 = getelementptr %"class.std::move_iterator"* %6, i32 0, i32 0, !dbg !1892
  %18 = load %"class.std::basic_string"** %17, !dbg !1892
  %19 = call %"class.std::basic_string"* @_ZSt22__uninitialized_copy_aISt13move_iteratorIPSsES1_SsET0_T_S4_S3_RSaIT1_E(%"class.std::basic_string"* %16, %"class.std::basic_string"* %18, %"class.std::basic_string"* %13, %"class.std::allocator"* %14), !dbg 
  ret %"class.std::basic_string"* %19, !dbg !1892
}

; Function Attrs: nounwind uwtable
define linkonce_odr %"class.std::allocator"* @_ZNSt12_Vector_baseISsSaISsEE19_M_get_Tp_allocatorEv(%"struct.std::_Vector_base"* %this) #4 align 2 {
  %1 = alloca %"struct.std::_Vector_base"*, align 8
  store %"struct.std::_Vector_base"* %this, %"struct.std::_Vector_base"** %1, align 8
  %2 = load %"struct.std::_Vector_base"** %1
  %3 = getelementptr inbounds %"struct.std::_Vector_base"* %2, i32 0, i32 0, !dbg !1893
  %4 = bitcast %"struct.std::_Vector_base<std::basic_string<char>, std::allocator<std::basic_string<char> > >::_Vector_impl"* %3 to %"class.std::allocator"*, !dbg !1893
  ret %"class.std::allocator"* %4, !dbg !1893
}

declare i8* @__cxa_begin_catch(i8*)

; Function Attrs: uwtable
define linkonce_odr void @_ZNSt16allocator_traitsISaISsEE7destroyISsEEvRS0_PT_(%"class.std::allocator"* %__a, %"class.std::basic_string"* %__p) #2 align 2 {
  %1 = alloca %"class.std::allocator"*, align 8
  %2 = alloca %"class.std::basic_string"*, align 8
  store %"class.std::allocator"* %__a, %"class.std::allocator"** %1, align 8
  store %"class.std::basic_string"* %__p, %"class.std::basic_string"** %2, align 8
  %3 = load %"class.std::allocator"** %1, align 8, !dbg !1895
  %4 = load %"class.std::basic_string"** %2, align 8, !dbg !1895
  call void @_ZNSt16allocator_traitsISaISsEE10_S_destroyISsEENSt9enable_ifIXsr16__destroy_helperIT_EE5valueEvE4typeERS0_PS4_(%"class.std::allocator"* %3, %"class.std::basic_string"* %4), !dbg !1895
  ret void, !dbg !1895
}

; Function Attrs: inlinehint uwtable
define linkonce_odr void @_ZSt8_DestroyIPSsSsEvT_S1_RSaIT0_E(%"class.std::basic_string"* %__first, %"class.std::basic_string"* %__last, %"class.std::allocator"*) #6 {
  %2 = alloca %"class.std::basic_string"*, align 8
  %3 = alloca %"class.std::basic_string"*, align 8
  %4 = alloca %"class.std::allocator"*, align 8
  store %"class.std::basic_string"* %__first, %"class.std::basic_string"** %2, align 8
  store %"class.std::basic_string"* %__last, %"class.std::basic_string"** %3, align 8
  store %"class.std::allocator"* %0, %"class.std::allocator"** %4, align 8
  %5 = load %"class.std::basic_string"** %2, align 8, !dbg !1897
  %6 = load %"class.std::basic_string"** %3, align 8, !dbg !1897
  call void @_ZSt8_DestroyIPSsEvT_S1_(%"class.std::basic_string"* %5, %"class.std::basic_string"* %6), !dbg !1897
  ret void, !dbg !1899
}

; Function Attrs: uwtable
define linkonce_odr void @_ZNSt12_Vector_baseISsSaISsEE13_M_deallocateEPSsm(%"struct.std::_Vector_base"* %this, %"class.std::basic_string"* %__p, i64 %__n) #2 align 2 {
  %1 = alloca %"struct.std::_Vector_base"*, align 8
  %2 = alloca %"class.std::basic_string"*, align 8
  %3 = alloca i64, align 8
  store %"struct.std::_Vector_base"* %this, %"struct.std::_Vector_base"** %1, align 8
  store %"class.std::basic_string"* %__p, %"class.std::basic_string"** %2, align 8
  store i64 %__n, i64* %3, align 8
  %4 = load %"struct.std::_Vector_base"** %1
  %5 = load %"class.std::basic_string"** %2, align 8, !dbg !1900
  %6 = icmp ne %"class.std::basic_string"* %5, null, !dbg !1900
  br i1 %6, label %7, label %12, !dbg !1900

; <label>:7                                       ; preds = %0
  %8 = getelementptr inbounds %"struct.std::_Vector_base"* %4, i32 0, i32 0, !dbg !1903
  %9 = bitcast %"struct.std::_Vector_base<std::basic_string<char>, std::allocator<std::basic_string<char> > >::_Vector_impl"* %8 to %"class.__gnu_cxx::new_allocator"*, !dbg !1903
  %10 = load %"class.std::basic_string"** %2, align 8, !dbg !1903
  %11 = load i64* %3, align 8, !dbg !1903
  call void @_ZN9__gnu_cxx13new_allocatorISsE10deallocateEPSsm(%"class.__gnu_cxx::new_allocator"* %9, %"class.std::basic_string"* %10, i64 %11), !dbg !1903
  br label %12, !dbg !1903

; <label>:12                                      ; preds = %7, %0
  ret void, !dbg !1904
}

declare void @__cxa_rethrow()

declare void @__cxa_end_catch()

; Function Attrs: noinline noreturn nounwind
define linkonce_odr hidden void @__clang_call_terminate(i8*) #7 {
  %2 = call i8* @__cxa_begin_catch(i8* %0) #9
  call void @_ZSt9terminatev() #18
  unreachable
}

declare void @_ZSt9terminatev()

; Function Attrs: nounwind uwtable
define linkonce_odr void @_ZN9__gnu_cxx13new_allocatorISsE10deallocateEPSsm(%"class.__gnu_cxx::new_allocator"* %this, %"class.std::basic_string"* %__p, i64) #4 align 2 {
  %2 = alloca %"class.__gnu_cxx::new_allocator"*, align 8
  %3 = alloca %"class.std::basic_string"*, align 8
  %4 = alloca i64, align 8
  store %"class.__gnu_cxx::new_allocator"* %this, %"class.__gnu_cxx::new_allocator"** %2, align 8
  store %"class.std::basic_string"* %__p, %"class.std::basic_string"** %3, align 8
  store i64 %0, i64* %4, align 8
  %5 = load %"class.__gnu_cxx::new_allocator"** %2
  %6 = load %"class.std::basic_string"** %3, align 8, !dbg !1905
  %7 = bitcast %"class.std::basic_string"* %6 to i8*, !dbg !1905
  call void @_ZdlPv(i8* %7) #9, !dbg !1905
  ret void, !dbg !1905
}

; Function Attrs: nobuiltin nounwind
declare void @_ZdlPv(i8*) #8

; Function Attrs: inlinehint uwtable
define linkonce_odr void @_ZSt8_DestroyIPSsEvT_S1_(%"class.std::basic_string"* %__first, %"class.std::basic_string"* %__last) #6 {
  %1 = alloca %"class.std::basic_string"*, align 8
  %2 = alloca %"class.std::basic_string"*, align 8
  store %"class.std::basic_string"* %__first, %"class.std::basic_string"** %1, align 8
  store %"class.std::basic_string"* %__last, %"class.std::basic_string"** %2, align 8
  %3 = load %"class.std::basic_string"** %1, align 8, !dbg !1907
  %4 = load %"class.std::basic_string"** %2, align 8, !dbg !1907
  call void @_ZNSt12_Destroy_auxILb0EE9__destroyIPSsEEvT_S3_(%"class.std::basic_string"* %3, %"class.std::basic_string"* %4), !dbg !1907
  ret void, !dbg !1908
}

; Function Attrs: uwtable
define linkonce_odr void @_ZNSt12_Destroy_auxILb0EE9__destroyIPSsEEvT_S3_(%"class.std::basic_string"* %__first, %"class.std::basic_string"* %__last) #2 align 2 {
  %1 = alloca %"class.std::basic_string"*, align 8
  %2 = alloca %"class.std::basic_string"*, align 8
  store %"class.std::basic_string"* %__first, %"class.std::basic_string"** %1, align 8
  store %"class.std::basic_string"* %__last, %"class.std::basic_string"** %2, align 8
  br label %3, !dbg !1909

; <label>:3                                       ; preds = %7, %0
  %4 = load %"class.std::basic_string"** %1, align 8, !dbg !1909
  %5 = load %"class.std::basic_string"** %2, align 8, !dbg !1909
  %6 = icmp ne %"class.std::basic_string"* %4, %5, !dbg !1909
  br i1 %6, label %7, label %12, !dbg !1909

; <label>:7                                       ; preds = %3
  %8 = load %"class.std::basic_string"** %1, align 8, !dbg !1911
  %9 = call %"class.std::basic_string"* @_ZSt11__addressofISsEPT_RS0_(%"class.std::basic_string"* %8) #9, !dbg !1911
  call void @_ZSt8_DestroyISsEvPT_(%"class.std::basic_string"* %9), !dbg !1912
  %10 = load %"class.std::basic_string"** %1, align 8, !dbg !1909
  %11 = getelementptr inbounds %"class.std::basic_string"* %10, i32 1, !dbg !1909
  store %"class.std::basic_string"* %11, %"class.std::basic_string"** %1, align 8, !dbg !1909
  br label %3, !dbg !1909

; <label>:12                                      ; preds = %3
  ret void, !dbg !1913
}

; Function Attrs: inlinehint nounwind uwtable
define linkonce_odr void @_ZSt8_DestroyISsEvPT_(%"class.std::basic_string"* %__pointer) #5 {
  %1 = alloca %"class.std::basic_string"*, align 8
  store %"class.std::basic_string"* %__pointer, %"class.std::basic_string"** %1, align 8
  %2 = load %"class.std::basic_string"** %1, align 8, !dbg !1914
  call void @_ZNSsD1Ev(%"class.std::basic_string"* %2) #9, !dbg !1914
  ret void, !dbg !1914
}

; Function Attrs: inlinehint nounwind uwtable
define linkonce_odr %"class.std::basic_string"* @_ZSt11__addressofISsEPT_RS0_(%"class.std::basic_string"* %__r) #5 {
  %1 = alloca %"class.std::basic_string"*, align 8
  store %"class.std::basic_string"* %__r, %"class.std::basic_string"** %1, align 8
  %2 = load %"class.std::basic_string"** %1, align 8, !dbg !1916
  %3 = bitcast %"class.std::basic_string"* %2 to i8*, !dbg !1916
  %4 = bitcast i8* %3 to %"class.std::basic_string"*, !dbg !1916
  ret %"class.std::basic_string"* %4, !dbg !1916
}

; Function Attrs: uwtable
define linkonce_odr void @_ZNSt16allocator_traitsISaISsEE10_S_destroyISsEENSt9enable_ifIXsr16__destroy_helperIT_EE5valueEvE4typeERS0_PS4_(%"class.std::allocator"* %__a, %"class.std::basic_string"* %__p) #2 align 2 {
  %1 = alloca %"class.std::allocator"*, align 8
  %2 = alloca %"class.std::basic_string"*, align 8
  store %"class.std::allocator"* %__a, %"class.std::allocator"** %1, align 8
  store %"class.std::basic_string"* %__p, %"class.std::basic_string"** %2, align 8
  %3 = load %"class.std::allocator"** %1, align 8, !dbg !1918
  %4 = bitcast %"class.std::allocator"* %3 to %"class.__gnu_cxx::new_allocator"*, !dbg !1918
  %5 = load %"class.std::basic_string"** %2, align 8, !dbg !1918
  call void @_ZN9__gnu_cxx13new_allocatorISsE7destroyISsEEvPT_(%"class.__gnu_cxx::new_allocator"* %4, %"class.std::basic_string"* %5), !dbg !1918
  ret void, !dbg !1918
}

; Function Attrs: nounwind uwtable
define linkonce_odr void @_ZN9__gnu_cxx13new_allocatorISsE7destroyISsEEvPT_(%"class.__gnu_cxx::new_allocator"* %this, %"class.std::basic_string"* %__p) #4 align 2 {
  %1 = alloca %"class.__gnu_cxx::new_allocator"*, align 8
  %2 = alloca %"class.std::basic_string"*, align 8
  store %"class.__gnu_cxx::new_allocator"* %this, %"class.__gnu_cxx::new_allocator"** %1, align 8
  store %"class.std::basic_string"* %__p, %"class.std::basic_string"** %2, align 8
  %3 = load %"class.__gnu_cxx::new_allocator"** %1
  %4 = load %"class.std::basic_string"** %2, align 8, !dbg !1919
  call void @_ZNSsD1Ev(%"class.std::basic_string"* %4) #9, !dbg !1919
  ret void, !dbg !1919
}

; Function Attrs: inlinehint uwtable
define linkonce_odr %"class.std::basic_string"* @_ZSt22__uninitialized_copy_aISt13move_iteratorIPSsES1_SsET0_T_S4_S3_RSaIT1_E(%"class.std::basic_string"* %__first.coerce, %"class.std::basic_string"* %__last.coerce, %"class.std::basic_string"* %__result, 
  %__first = alloca %"class.std::move_iterator", align 8
  %__last = alloca %"class.std::move_iterator", align 8
  %2 = alloca %"class.std::basic_string"*, align 8
  %3 = alloca %"class.std::allocator"*, align 8
  %4 = alloca %"class.std::move_iterator", align 8
  %5 = alloca %"class.std::move_iterator", align 8
  %6 = getelementptr %"class.std::move_iterator"* %__first, i32 0, i32 0
  store %"class.std::basic_string"* %__first.coerce, %"class.std::basic_string"** %6
  %7 = getelementptr %"class.std::move_iterator"* %__last, i32 0, i32 0
  store %"class.std::basic_string"* %__last.coerce, %"class.std::basic_string"** %7
  store %"class.std::basic_string"* %__result, %"class.std::basic_string"** %2, align 8
  store %"class.std::allocator"* %0, %"class.std::allocator"** %3, align 8
  %8 = bitcast %"class.std::move_iterator"* %4 to i8*, !dbg !1921
  %9 = bitcast %"class.std::move_iterator"* %__first to i8*, !dbg !1921
  %10 = call i8* @memcpy(i8* %8, i8* %9, i64 8)
  %11 = bitcast %"class.std::move_iterator"* %5 to i8*, !dbg !1921
  %12 = bitcast %"class.std::move_iterator"* %__last to i8*, !dbg !1921
  %13 = call i8* @memcpy(i8* %11, i8* %12, i64 8)
  %14 = load %"class.std::basic_string"** %2, align 8, !dbg !1921
  %15 = getelementptr %"class.std::move_iterator"* %4, i32 0, i32 0, !dbg !1921
  %16 = load %"class.std::basic_string"** %15, !dbg !1921
  %17 = getelementptr %"class.std::move_iterator"* %5, i32 0, i32 0, !dbg !1921
  %18 = load %"class.std::basic_string"** %17, !dbg !1921
  %19 = call %"class.std::basic_string"* @_ZSt18uninitialized_copyISt13move_iteratorIPSsES1_ET0_T_S4_S3_(%"class.std::basic_string"* %16, %"class.std::basic_string"* %18, %"class.std::basic_string"* %14), !dbg !1921
  ret %"class.std::basic_string"* %19, !dbg !1921
}

; Function Attrs: inlinehint uwtable
define linkonce_odr %"class.std::basic_string"* @_ZSt32__make_move_if_noexcept_iteratorIPSsSt13move_iteratorIS0_EET0_T_(%"class.std::basic_string"* %__i) #6 {
  %1 = alloca %"class.std::move_iterator", align 8
  %2 = alloca %"class.std::basic_string"*, align 8
  store %"class.std::basic_string"* %__i, %"class.std::basic_string"** %2, align 8
  %3 = load %"class.std::basic_string"** %2, align 8, !dbg !1923
  call void @_ZNSt13move_iteratorIPSsEC2ES0_(%"class.std::move_iterator"* %1, %"class.std::basic_string"* %3), !dbg !1923
  %4 = getelementptr %"class.std::move_iterator"* %1, i32 0, i32 0, !dbg !1923
  %5 = load %"class.std::basic_string"** %4, !dbg !1923
  ret %"class.std::basic_string"* %5, !dbg !1923
}

; Function Attrs: nounwind uwtable
define linkonce_odr void @_ZNSt13move_iteratorIPSsEC2ES0_(%"class.std::move_iterator"* %this, %"class.std::basic_string"* %__i) unnamed_addr #4 align 2 {
  %1 = alloca %"class.std::move_iterator"*, align 8
  %2 = alloca %"class.std::basic_string"*, align 8
  store %"class.std::move_iterator"* %this, %"class.std::move_iterator"** %1, align 8
  store %"class.std::basic_string"* %__i, %"class.std::basic_string"** %2, align 8
  %3 = load %"class.std::move_iterator"** %1
  %4 = getelementptr inbounds %"class.std::move_iterator"* %3, i32 0, i32 0, !dbg !1925
  %5 = load %"class.std::basic_string"** %2, align 8, !dbg !1925
  store %"class.std::basic_string"* %5, %"class.std::basic_string"** %4, align 8, !dbg !1925
  ret void, !dbg !1925
}

; Function Attrs: inlinehint uwtable
define linkonce_odr %"class.std::basic_string"* @_ZSt18uninitialized_copyISt13move_iteratorIPSsES1_ET0_T_S4_S3_(%"class.std::basic_string"* %__first.coerce, %"class.std::basic_string"* %__last.coerce, %"class.std::basic_string"* %__result) #6 {
  %__first = alloca %"class.std::move_iterator", align 8
  %__last = alloca %"class.std::move_iterator", align 8
  %1 = alloca %"class.std::basic_string"*, align 8
  %2 = alloca %"class.std::move_iterator", align 8
  %3 = alloca %"class.std::move_iterator", align 8
  %4 = getelementptr %"class.std::move_iterator"* %__first, i32 0, i32 0
  store %"class.std::basic_string"* %__first.coerce, %"class.std::basic_string"** %4
  %5 = getelementptr %"class.std::move_iterator"* %__last, i32 0, i32 0
  store %"class.std::basic_string"* %__last.coerce, %"class.std::basic_string"** %5
  store %"class.std::basic_string"* %__result, %"class.std::basic_string"** %1, align 8
  %6 = bitcast %"class.std::move_iterator"* %2 to i8*, !dbg !1926
  %7 = bitcast %"class.std::move_iterator"* %__first to i8*, !dbg !1926
  %8 = call i8* @memcpy(i8* %6, i8* %7, i64 8)
  %9 = bitcast %"class.std::move_iterator"* %3 to i8*, !dbg !1926
  %10 = bitcast %"class.std::move_iterator"* %__last to i8*, !dbg !1926
  %11 = call i8* @memcpy(i8* %9, i8* %10, i64 8)
  %12 = load %"class.std::basic_string"** %1, align 8, !dbg !1926
  %13 = getelementptr %"class.std::move_iterator"* %2, i32 0, i32 0, !dbg !1926
  %14 = load %"class.std::basic_string"** %13, !dbg !1926
  %15 = getelementptr %"class.std::move_iterator"* %3, i32 0, i32 0, !dbg !1926
  %16 = load %"class.std::basic_string"** %15, !dbg !1926
  %17 = call %"class.std::basic_string"* @_ZNSt20__uninitialized_copyILb0EE13__uninit_copyISt13move_iteratorIPSsES3_EET0_T_S6_S5_(%"class.std::basic_string"* %14, %"class.std::basic_string"* %16, %"class.std::basic_string"* %12), !dbg !1926
  ret %"class.std::basic_string"* %17, !dbg !1926
}

; Function Attrs: nounwind
declare void @llvm.memcpy.p0i8.p0i8.i64(i8* nocapture, i8* nocapture readonly, i64, i32, i1) #9

; Function Attrs: uwtable
define linkonce_odr %"class.std::basic_string"* @_ZNSt20__uninitialized_copyILb0EE13__uninit_copyISt13move_iteratorIPSsES3_EET0_T_S6_S5_(%"class.std::basic_string"* %__first.coerce, %"class.std::basic_string"* %__last.coerce, %"class.std::basic_string"* 
  %__first = alloca %"class.std::move_iterator", align 8
  %__last = alloca %"class.std::move_iterator", align 8
  %1 = alloca %"class.std::basic_string"*, align 8
  %__cur = alloca %"class.std::basic_string"*, align 8
  %2 = alloca i8*
  %3 = alloca i32
  %4 = getelementptr %"class.std::move_iterator"* %__first, i32 0, i32 0
  store %"class.std::basic_string"* %__first.coerce, %"class.std::basic_string"** %4
  %5 = getelementptr %"class.std::move_iterator"* %__last, i32 0, i32 0
  store %"class.std::basic_string"* %__last.coerce, %"class.std::basic_string"** %5
  store %"class.std::basic_string"* %__result, %"class.std::basic_string"** %1, align 8
  %6 = load %"class.std::basic_string"** %1, align 8, !dbg !1927
  store %"class.std::basic_string"* %6, %"class.std::basic_string"** %__cur, align 8, !dbg !1927
  br label %7, !dbg !1928

; <label>:7                                       ; preds = %11, %0
  %8 = invoke zeroext i1 @_ZStneIPSsEbRKSt13move_iteratorIT_ES5_(%"class.std::move_iterator"* %__first, %"class.std::move_iterator"* %__last)
          to label %9 unwind label %17, !dbg !1928

; <label>:9                                       ; preds = %7
  %10 = load %"class.std::basic_string"** %__cur, align 8, !dbg !1931
  br i1 %8, label %11, label %26, !dbg !1928

; <label>:11                                      ; preds = %9
  %12 = call %"class.std::basic_string"* @_ZSt11__addressofISsEPT_RS0_(%"class.std::basic_string"* %10) #9, !dbg !1931
  %13 = call %"class.std::basic_string"* @_ZNKSt13move_iteratorIPSsEdeEv(%"class.std::move_iterator"* %__first), !dbg !1932
  call void @_ZSt10_ConstructISsJSsEEvPT_DpOT0_(%"class.std::basic_string"* %12, %"class.std::basic_string"* %13), !dbg !1933
  %14 = call %"class.std::move_iterator"* @_ZNSt13move_iteratorIPSsEppEv(%"class.std::move_iterator"* %__first), !dbg !1928
  %15 = load %"class.std::basic_string"** %__cur, align 8, !dbg !1928
  %16 = getelementptr inbounds %"class.std::basic_string"* %15, i32 1, !dbg !1928
  store %"class.std::basic_string"* %16, %"class.std::basic_string"** %__cur, align 8, !dbg !1928
  br label %7, !dbg !1928

; <label>:17                                      ; preds = %7
  %18 = landingpad { i8*, i32 } personality i8* bitcast (i32 (...)* @__gxx_personality_v0 to i8*)
          catch i8* null, !dbg !1934
  %19 = extractvalue { i8*, i32 } %18, 0, !dbg !1934
  store i8* %19, i8** %2, !dbg !1934
  %20 = extractvalue { i8*, i32 } %18, 1, !dbg !1934
  store i32 %20, i32* %3, !dbg !1934
  %21 = load i8** %2, !dbg !1935
  %22 = call i8* @__cxa_begin_catch(i8* %21) #9, !dbg !1935
  %23 = load %"class.std::basic_string"** %1, align 8, !dbg !1936
  %24 = load %"class.std::basic_string"** %__cur, align 8, !dbg !1936
  invoke void @_ZSt8_DestroyIPSsEvT_S1_(%"class.std::basic_string"* %23, %"class.std::basic_string"* %24)
          to label %25 unwind label %27, !dbg !1936

; <label>:25                                      ; preds = %17
  invoke void @__cxa_rethrow() #19
          to label %39 unwind label %27, !dbg !1938

; <label>:26                                      ; preds = %9
  ret %"class.std::basic_string"* %10, !dbg !1939

; <label>:27                                      ; preds = %25, %17
  %28 = landingpad { i8*, i32 } personality i8* bitcast (i32 (...)* @__gxx_personality_v0 to i8*)
          cleanup, !dbg !1940
  %29 = extractvalue { i8*, i32 } %28, 0, !dbg !1940
  store i8* %29, i8** %2, !dbg !1940
  %30 = extractvalue { i8*, i32 } %28, 1, !dbg !1940
  store i32 %30, i32* %3, !dbg !1940
  invoke void @__cxa_end_catch()
          to label %31 unwind label %36, !dbg !1941

; <label>:31                                      ; preds = %27
  %32 = load i8** %2, !dbg !1941
  %33 = load i32* %3, !dbg !1941
  %34 = insertvalue { i8*, i32 } undef, i8* %32, 0, !dbg !1941
  %35 = insertvalue { i8*, i32 } %34, i32 %33, 1, !dbg !1941
  resume { i8*, i32 } %35, !dbg !1941

; <label>:36                                      ; preds = %27
  %37 = landingpad { i8*, i32 } personality i8* bitcast (i32 (...)* @__gxx_personality_v0 to i8*)
          catch i8* null, !dbg !1941
  %38 = extractvalue { i8*, i32 } %37, 0, !dbg !1941
  call void @__clang_call_terminate(i8* %38) #18, !dbg !1941
  unreachable, !dbg !1941

; <label>:39                                      ; preds = %25
  unreachable
}

; Function Attrs: inlinehint uwtable
define linkonce_odr zeroext i1 @_ZStneIPSsEbRKSt13move_iteratorIT_ES5_(%"class.std::move_iterator"* %__x, %"class.std::move_iterator"* %__y) #6 {
  %1 = alloca %"class.std::move_iterator"*, align 8
  %2 = alloca %"class.std::move_iterator"*, align 8
  store %"class.std::move_iterator"* %__x, %"class.std::move_iterator"** %1, align 8
  store %"class.std::move_iterator"* %__y, %"class.std::move_iterator"** %2, align 8
  %3 = load %"class.std::move_iterator"** %1, align 8, !dbg !1942
  %4 = load %"class.std::move_iterator"** %2, align 8, !dbg !1942
  %5 = call zeroext i1 @_ZSteqIPSsEbRKSt13move_iteratorIT_ES5_(%"class.std::move_iterator"* %3, %"class.std::move_iterator"* %4), !dbg !1942
  %6 = xor i1 %5, true, !dbg !1942
  ret i1 %6, !dbg !1942
}

; Function Attrs: inlinehint nounwind uwtable
define linkonce_odr void @_ZSt10_ConstructISsJSsEEvPT_DpOT0_(%"class.std::basic_string"* %__p, %"class.std::basic_string"* %__args) #5 {
  %1 = alloca %"class.std::basic_string"*, align 8
  %2 = alloca %"class.std::basic_string"*, align 8
  store %"class.std::basic_string"* %__p, %"class.std::basic_string"** %1, align 8
  store %"class.std::basic_string"* %__args, %"class.std::basic_string"** %2, align 8
  %3 = load %"class.std::basic_string"** %1, align 8, !dbg !1944
  %4 = bitcast %"class.std::basic_string"* %3 to i8*, !dbg !1944
  %5 = icmp eq i8* %4, null, !dbg !1944
  br i1 %5, label %10, label %6, !dbg !1944

; <label>:6                                       ; preds = %0
  %7 = bitcast i8* %4 to %"class.std::basic_string"*, !dbg !1944
  %8 = load %"class.std::basic_string"** %2, align 8, !dbg !1944
  %9 = call %"class.std::basic_string"* @_ZSt7forwardISsEOT_RNSt16remove_referenceIS0_E4typeE(%"class.std::basic_string"* %8) #9, !dbg !1944
  call void @_ZNSsC1EOSs(%"class.std::basic_string"* %7, %"class.std::basic_string"* %9) #9, !dbg !1944
  br label %10, !dbg !1944

; <label>:10                                      ; preds = %6, %0
  %11 = phi %"class.std::basic_string"* [ %7, %6 ], [ null, %0 ], !dbg !1944
  ret void, !dbg !1944
}

; Function Attrs: nounwind uwtable
define linkonce_odr %"class.std::basic_string"* @_ZNKSt13move_iteratorIPSsEdeEv(%"class.std::move_iterator"* %this) #4 align 2 {
  %1 = alloca %"class.std::move_iterator"*, align 8
  store %"class.std::move_iterator"* %this, %"class.std::move_iterator"** %1, align 8
  %2 = load %"class.std::move_iterator"** %1
  %3 = getelementptr inbounds %"class.std::move_iterator"* %2, i32 0, i32 0, !dbg !1946
  %4 = load %"class.std::basic_string"** %3, align 8, !dbg !1946
  %5 = call %"class.std::basic_string"* @_ZSt4moveIRSsEONSt16remove_referenceIT_E4typeEOS2_(%"class.std::basic_string"* %4) #9, !dbg !1946
  ret %"class.std::basic_string"* %5, !dbg !1946
}

; Function Attrs: nounwind uwtable
define linkonce_odr %"class.std::move_iterator"* @_ZNSt13move_iteratorIPSsEppEv(%"class.std::move_iterator"* %this) #4 align 2 {
  %1 = alloca %"class.std::move_iterator"*, align 8
  store %"class.std::move_iterator"* %this, %"class.std::move_iterator"** %1, align 8
  %2 = load %"class.std::move_iterator"** %1
  %3 = getelementptr inbounds %"class.std::move_iterator"* %2, i32 0, i32 0, !dbg !1947
  %4 = load %"class.std::basic_string"** %3, align 8, !dbg !1947
  %5 = getelementptr inbounds %"class.std::basic_string"* %4, i32 1, !dbg !1947
  store %"class.std::basic_string"* %5, %"class.std::basic_string"** %3, align 8, !dbg !1947
  ret %"class.std::move_iterator"* %2, !dbg !1949
}

; Function Attrs: inlinehint uwtable
define linkonce_odr zeroext i1 @_ZSteqIPSsEbRKSt13move_iteratorIT_ES5_(%"class.std::move_iterator"* %__x, %"class.std::move_iterator"* %__y) #6 {
  %1 = alloca %"class.std::move_iterator"*, align 8
  %2 = alloca %"class.std::move_iterator"*, align 8
  store %"class.std::move_iterator"* %__x, %"class.std::move_iterator"** %1, align 8
  store %"class.std::move_iterator"* %__y, %"class.std::move_iterator"** %2, align 8
  %3 = load %"class.std::move_iterator"** %1, align 8, !dbg !1950
  %4 = call %"class.std::basic_string"* @_ZNKSt13move_iteratorIPSsE4baseEv(%"class.std::move_iterator"* %3), !dbg !1950
  %5 = load %"class.std::move_iterator"** %2, align 8, !dbg !1950
  %6 = call %"class.std::basic_string"* @_ZNKSt13move_iteratorIPSsE4baseEv(%"class.std::move_iterator"* %5), !dbg !1950
  %7 = icmp eq %"class.std::basic_string"* %4, %6, !dbg !1950
  ret i1 %7, !dbg !1950
}

; Function Attrs: nounwind uwtable
define linkonce_odr %"class.std::basic_string"* @_ZNKSt13move_iteratorIPSsE4baseEv(%"class.std::move_iterator"* %this) #4 align 2 {
  %1 = alloca %"class.std::move_iterator"*, align 8
  store %"class.std::move_iterator"* %this, %"class.std::move_iterator"** %1, align 8
  %2 = load %"class.std::move_iterator"** %1
  %3 = getelementptr inbounds %"class.std::move_iterator"* %2, i32 0, i32 0, !dbg !1951
  %4 = load %"class.std::basic_string"** %3, align 8, !dbg !1951
  ret %"class.std::basic_string"* %4, !dbg !1951
}

; Function Attrs: uwtable
define linkonce_odr %"class.std::basic_string"* @_ZN9__gnu_cxx13new_allocatorISsE8allocateEmPKv(%"class.__gnu_cxx::new_allocator"* %this, i64 %__n, i8*) #2 align 2 {
  %2 = alloca %"class.__gnu_cxx::new_allocator"*, align 8
  %3 = alloca i64, align 8
  %4 = alloca i8*, align 8
  store %"class.__gnu_cxx::new_allocator"* %this, %"class.__gnu_cxx::new_allocator"** %2, align 8
  store i64 %__n, i64* %3, align 8
  store i8* %0, i8** %4, align 8
  %5 = load %"class.__gnu_cxx::new_allocator"** %2
  %6 = load i64* %3, align 8, !dbg !1952
  %7 = call i64 @_ZNK9__gnu_cxx13new_allocatorISsE8max_sizeEv(%"class.__gnu_cxx::new_allocator"* %5) #9, !dbg !1952
  %8 = icmp ugt i64 %6, %7, !dbg !1952
  br i1 %8, label %9, label %10, !dbg !1952

; <label>:9                                       ; preds = %1
  call void @_ZSt17__throw_bad_allocv() #19, !dbg !1955
  unreachable, !dbg !1955

; <label>:10                                      ; preds = %1
  %11 = load i64* %3, align 8, !dbg !1956
  %12 = mul i64 %11, 8, !dbg !1956
  %13 = call noalias i8* @_Znwm(i64 %12), !dbg !1956
  %14 = bitcast i8* %13 to %"class.std::basic_string"*, !dbg !1956
  ret %"class.std::basic_string"* %14, !dbg !1956
}

; Function Attrs: nounwind uwtable
define linkonce_odr i64 @_ZNK9__gnu_cxx13new_allocatorISsE8max_sizeEv(%"class.__gnu_cxx::new_allocator"* %this) #4 align 2 {
  %1 = alloca %"class.__gnu_cxx::new_allocator"*, align 8
  store %"class.__gnu_cxx::new_allocator"* %this, %"class.__gnu_cxx::new_allocator"** %1, align 8
  %2 = load %"class.__gnu_cxx::new_allocator"** %1
  ret i64 2305843009213693951, !dbg !1957
}

; Function Attrs: noreturn
declare void @_ZSt17__throw_bad_allocv() #10

; Function Attrs: nobuiltin
declare noalias i8* @_Znwm(i64) #11

; Function Attrs: nounwind uwtable
define linkonce_odr i64 @_ZNKSt6vectorISsSaISsEE8max_sizeEv(%"class.std::vector"* %this) #4 align 2 {
  %1 = alloca %"class.std::vector"*, align 8
  store %"class.std::vector"* %this, %"class.std::vector"** %1, align 8
  %2 = load %"class.std::vector"** %1
  %3 = bitcast %"class.std::vector"* %2 to %"struct.std::_Vector_base"*, !dbg !1958
  %4 = call %"class.std::allocator"* @_ZNKSt12_Vector_baseISsSaISsEE19_M_get_Tp_allocatorEv(%"struct.std::_Vector_base"* %3) #9, !dbg !1958
  %5 = invoke i64 @_ZNSt16allocator_traitsISaISsEE8max_sizeERKS0_(%"class.std::allocator"* %4)
          to label %6 unwind label %7, !dbg !1958

; <label>:6                                       ; preds = %0
  ret i64 %5, !dbg !1958

; <label>:7                                       ; preds = %0
  %8 = landingpad { i8*, i32 } personality i8* bitcast (i32 (...)* @__gxx_personality_v0 to i8*)
          catch i8* null, !dbg !1958
  %9 = extractvalue { i8*, i32 } %8, 0, !dbg !1958
  call void @__clang_call_terminate(i8* %9) #18, !dbg !1958
  unreachable, !dbg !1958
}

; Function Attrs: noreturn
declare void @_ZSt20__throw_length_errorPKc(i8*) #10

; Function Attrs: inlinehint nounwind uwtable
define linkonce_odr i64* @_ZSt3maxImERKT_S2_S2_(i64* %__a, i64* %__b) #5 {
  %1 = alloca i64*, align 8
  %2 = alloca i64*, align 8
  %3 = alloca i64*, align 8
  store i64* %__a, i64** %2, align 8
  store i64* %__b, i64** %3, align 8
  %4 = load i64** %2, align 8, !dbg !1960
  %5 = load i64* %4, align 8, !dbg !1960
  %6 = load i64** %3, align 8, !dbg !1960
  %7 = load i64* %6, align 8, !dbg !1960
  %8 = icmp ult i64 %5, %7, !dbg !1960
  br i1 %8, label %9, label %11, !dbg !1960

; <label>:9                                       ; preds = %0
  %10 = load i64** %3, align 8, !dbg !1963
  store i64* %10, i64** %1, !dbg !1963
  br label %13, !dbg !1963

; <label>:11                                      ; preds = %0
  %12 = load i64** %2, align 8, !dbg !1964
  store i64* %12, i64** %1, !dbg !1964
  br label %13, !dbg !1964

; <label>:13                                      ; preds = %11, %9
  %14 = load i64** %1, !dbg !1965
  ret i64* %14, !dbg !1965
}

; Function Attrs: uwtable
define linkonce_odr i64 @_ZNSt16allocator_traitsISaISsEE8max_sizeERKS0_(%"class.std::allocator"* %__a) #2 align 2 {
  %1 = alloca %"class.std::allocator"*, align 8
  store %"class.std::allocator"* %__a, %"class.std::allocator"** %1, align 8
  %2 = load %"class.std::allocator"** %1, align 8, !dbg !1966
  %3 = call i64 @_ZNSt16allocator_traitsISaISsEE11_S_max_sizeIKS0_EENSt9enable_ifIXsr16__maxsize_helperIT_EE5valueEmE4typeERS5_(%"class.std::allocator"* %2), !dbg !1966
  ret i64 %3, !dbg !1966
}

; Function Attrs: nounwind uwtable
define linkonce_odr %"class.std::allocator"* @_ZNKSt12_Vector_baseISsSaISsEE19_M_get_Tp_allocatorEv(%"struct.std::_Vector_base"* %this) #4 align 2 {
  %1 = alloca %"struct.std::_Vector_base"*, align 8
  store %"struct.std::_Vector_base"* %this, %"struct.std::_Vector_base"** %1, align 8
  %2 = load %"struct.std::_Vector_base"** %1
  %3 = getelementptr inbounds %"struct.std::_Vector_base"* %2, i32 0, i32 0, !dbg !1968
  %4 = bitcast %"struct.std::_Vector_base<std::basic_string<char>, std::allocator<std::basic_string<char> > >::_Vector_impl"* %3 to %"class.std::allocator"*, !dbg !1968
  ret %"class.std::allocator"* %4, !dbg !1968
}

; Function Attrs: nounwind uwtable
define linkonce_odr i64 @_ZNSt16allocator_traitsISaISsEE11_S_max_sizeIKS0_EENSt9enable_ifIXsr16__maxsize_helperIT_EE5valueEmE4typeERS5_(%"class.std::allocator"* %__a) #4 align 2 {
  %1 = alloca %"class.std::allocator"*, align 8
  store %"class.std::allocator"* %__a, %"class.std::allocator"** %1, align 8
  %2 = load %"class.std::allocator"** %1, align 8, !dbg !1969
  %3 = bitcast %"class.std::allocator"* %2 to %"class.__gnu_cxx::new_allocator"*, !dbg !1969
  %4 = call i64 @_ZNK9__gnu_cxx13new_allocatorISsE8max_sizeEv(%"class.__gnu_cxx::new_allocator"* %3) #9, !dbg !1969
  ret i64 %4, !dbg !1969
}

; Function Attrs: uwtable
define linkonce_odr void @_ZNSt16allocator_traitsISaISsEE12_S_constructISsJSsEEENSt9enable_ifIXsr18__construct_helperIT_DpT0_EE5valueEvE4typeERS0_PS4_DpOS5_(%"class.std::allocator"* %__a, %"class.std::basic_string"* %__p, %"class.std::basic_string"* %__a
  %1 = alloca %"class.std::allocator"*, align 8
  %2 = alloca %"class.std::basic_string"*, align 8
  %3 = alloca %"class.std::basic_string"*, align 8
  store %"class.std::allocator"* %__a, %"class.std::allocator"** %1, align 8
  store %"class.std::basic_string"* %__p, %"class.std::basic_string"** %2, align 8
  store %"class.std::basic_string"* %__args, %"class.std::basic_string"** %3, align 8
  %4 = load %"class.std::allocator"** %1, align 8, !dbg !1970
  %5 = bitcast %"class.std::allocator"* %4 to %"class.__gnu_cxx::new_allocator"*, !dbg !1970
  %6 = load %"class.std::basic_string"** %2, align 8, !dbg !1970
  %7 = load %"class.std::basic_string"** %3, align 8, !dbg !1970
  %8 = call %"class.std::basic_string"* @_ZSt7forwardISsEOT_RNSt16remove_referenceIS0_E4typeE(%"class.std::basic_string"* %7) #9, !dbg !1970
  call void @_ZN9__gnu_cxx13new_allocatorISsE9constructISsJSsEEEvPT_DpOT0_(%"class.__gnu_cxx::new_allocator"* %5, %"class.std::basic_string"* %6, %"class.std::basic_string"* %8), !dbg !1970
  ret void, !dbg !1970
}

; Function Attrs: nounwind uwtable
define linkonce_odr void @_ZN9__gnu_cxx13new_allocatorISsE9constructISsJSsEEEvPT_DpOT0_(%"class.__gnu_cxx::new_allocator"* %this, %"class.std::basic_string"* %__p, %"class.std::basic_string"* %__args) #4 align 2 {
  %1 = alloca %"class.__gnu_cxx::new_allocator"*, align 8
  %2 = alloca %"class.std::basic_string"*, align 8
  %3 = alloca %"class.std::basic_string"*, align 8
  store %"class.__gnu_cxx::new_allocator"* %this, %"class.__gnu_cxx::new_allocator"** %1, align 8
  store %"class.std::basic_string"* %__p, %"class.std::basic_string"** %2, align 8
  store %"class.std::basic_string"* %__args, %"class.std::basic_string"** %3, align 8
  %4 = load %"class.__gnu_cxx::new_allocator"** %1
  %5 = load %"class.std::basic_string"** %2, align 8, !dbg !1971
  %6 = bitcast %"class.std::basic_string"* %5 to i8*, !dbg !1971
  %7 = icmp eq i8* %6, null, !dbg !1971
  br i1 %7, label %12, label %8, !dbg !1971

; <label>:8                                       ; preds = %0
  %9 = bitcast i8* %6 to %"class.std::basic_string"*, !dbg !1971
  %10 = load %"class.std::basic_string"** %3, align 8, !dbg !1971
  %11 = call %"class.std::basic_string"* @_ZSt7forwardISsEOT_RNSt16remove_referenceIS0_E4typeE(%"class.std::basic_string"* %10) #9, !dbg !1971
  call void @_ZNSsC1EOSs(%"class.std::basic_string"* %9, %"class.std::basic_string"* %11) #9, !dbg !1971
  br label %12, !dbg !1971

; <label>:12                                      ; preds = %8, %0
  %13 = phi %"class.std::basic_string"* [ %9, %8 ], [ null, %0 ], !dbg !1971
  ret void, !dbg !1971
}

; Function Attrs: uwtable
define linkonce_odr void @_ZNSt6vectorISsSaISsEE15_M_erase_at_endEPSs(%"class.std::vector"* %this, %"class.std::basic_string"* %__pos) #2 align 2 {
  %1 = alloca %"class.std::vector"*, align 8
  %2 = alloca %"class.std::basic_string"*, align 8
  store %"class.std::vector"* %this, %"class.std::vector"** %1, align 8
  store %"class.std::basic_string"* %__pos, %"class.std::basic_string"** %2, align 8
  %3 = load %"class.std::vector"** %1
  %4 = load %"class.std::basic_string"** %2, align 8, !dbg !1973
  %5 = bitcast %"class.std::vector"* %3 to %"struct.std::_Vector_base"*, !dbg !1973
  %6 = getelementptr inbounds %"struct.std::_Vector_base"* %5, i32 0, i32 0, !dbg !1973
  %7 = getelementptr inbounds %"struct.std::_Vector_base<std::basic_string<char>, std::allocator<std::basic_string<char> > >::_Vector_impl"* %6, i32 0, i32 1, !dbg !1973
  %8 = load %"class.std::basic_string"** %7, align 8, !dbg !1973
  %9 = bitcast %"class.std::vector"* %3 to %"struct.std::_Vector_base"*, !dbg !1973
  %10 = call %"class.std::allocator"* @_ZNSt12_Vector_baseISsSaISsEE19_M_get_Tp_allocatorEv(%"struct.std::_Vector_base"* %9) #9, !dbg !1973
  call void @_ZSt8_DestroyIPSsSsEvT_S1_RSaIT0_E(%"class.std::basic_string"* %4, %"class.std::basic_string"* %8, %"class.std::allocator"* %10), !dbg !1974
  %11 = load %"class.std::basic_string"** %2, align 8, !dbg !1975
  %12 = bitcast %"class.std::vector"* %3 to %"struct.std::_Vector_base"*, !dbg !1975
  %13 = getelementptr inbounds %"struct.std::_Vector_base"* %12, i32 0, i32 0, !dbg !1975
  %14 = getelementptr inbounds %"struct.std::_Vector_base<std::basic_string<char>, std::allocator<std::basic_string<char> > >::_Vector_impl"* %13, i32 0, i32 1, !dbg !1975
  store %"class.std::basic_string"* %11, %"class.std::basic_string"** %14, align 8, !dbg !1975
  ret void, !dbg !1976
}

; Function Attrs: nounwind uwtable
define linkonce_odr void @_ZNSt12_Vector_baseISsSaISsEED2Ev(%"struct.std::_Vector_base"* %this) unnamed_addr #4 align 2 {
  %1 = alloca %"struct.std::_Vector_base"*, align 8
  %2 = alloca i8*
  %3 = alloca i32
  store %"struct.std::_Vector_base"* %this, %"struct.std::_Vector_base"** %1, align 8
  %4 = load %"struct.std::_Vector_base"** %1
  %5 = getelementptr inbounds %"struct.std::_Vector_base"* %4, i32 0, i32 0, !dbg !1977
  %6 = getelementptr inbounds %"struct.std::_Vector_base<std::basic_string<char>, std::allocator<std::basic_string<char> > >::_Vector_impl"* %5, i32 0, i32 0, !dbg !1977
  %7 = load %"class.std::basic_string"** %6, align 8, !dbg !1977
  %8 = getelementptr inbounds %"struct.std::_Vector_base"* %4, i32 0, i32 0, !dbg !1977
  %9 = getelementptr inbounds %"struct.std::_Vector_base<std::basic_string<char>, std::allocator<std::basic_string<char> > >::_Vector_impl"* %8, i32 0, i32 2, !dbg !1977
  %10 = load %"class.std::basic_string"** %9, align 8, !dbg !1977
  %11 = getelementptr inbounds %"struct.std::_Vector_base"* %4, i32 0, i32 0, !dbg !1977
  %12 = getelementptr inbounds %"struct.std::_Vector_base<std::basic_string<char>, std::allocator<std::basic_string<char> > >::_Vector_impl"* %11, i32 0, i32 0, !dbg !1977
  %13 = load %"class.std::basic_string"** %12, align 8, !dbg !1977
  %14 = ptrtoint %"class.std::basic_string"* %10 to i64, !dbg !1977
  %15 = ptrtoint %"class.std::basic_string"* %13 to i64, !dbg !1977
  %16 = sub i64 %14, %15, !dbg !1977
  %int_cast_to_i64 = bitcast i64 8 to i64
  call void @klee_div_zero_check(i64 %int_cast_to_i64), !dbg !1977
  %17 = sdiv exact i64 %16, 8, !dbg !1977
  invoke void @_ZNSt12_Vector_baseISsSaISsEE13_M_deallocateEPSsm(%"struct.std::_Vector_base"* %4, %"class.std::basic_string"* %7, i64 %17)
          to label %18 unwind label %20, !dbg !1977

; <label>:18                                      ; preds = %0
  %19 = getelementptr inbounds %"struct.std::_Vector_base"* %4, i32 0, i32 0, !dbg !1979
  call void @_ZNSt12_Vector_baseISsSaISsEE12_Vector_implD2Ev(%"struct.std::_Vector_base<std::basic_string<char>, std::allocator<std::basic_string<char> > >::_Vector_impl"* %19) #9, !dbg !1979
  ret void, !dbg !1980

; <label>:20                                      ; preds = %0
  %21 = landingpad { i8*, i32 } personality i8* bitcast (i32 (...)* @__gxx_personality_v0 to i8*)
          cleanup
          filter [0 x i8*] zeroinitializer, !dbg !1979
  %22 = extractvalue { i8*, i32 } %21, 0, !dbg !1979
  store i8* %22, i8** %2, !dbg !1979
  %23 = extractvalue { i8*, i32 } %21, 1, !dbg !1979
  store i32 %23, i32* %3, !dbg !1979
  %24 = getelementptr inbounds %"struct.std::_Vector_base"* %4, i32 0, i32 0, !dbg !1980
  call void @_ZNSt12_Vector_baseISsSaISsEE12_Vector_implD2Ev(%"struct.std::_Vector_base<std::basic_string<char>, std::allocator<std::basic_string<char> > >::_Vector_impl"* %24) #9, !dbg !1980
  %25 = load i8** %2, !dbg !1980
  call void @__cxa_call_unexpected(i8* %25) #19, !dbg !1980
  unreachable, !dbg !1980
}

; Function Attrs: inlinehint nounwind uwtable
define linkonce_odr void @_ZNSt12_Vector_baseISsSaISsEE12_Vector_implD2Ev(%"struct.std::_Vector_base<std::basic_string<char>, std::allocator<std::basic_string<char> > >::_Vector_impl"* %this) unnamed_addr #5 align 2 {
  %1 = alloca %"struct.std::_Vector_base<std::basic_string<char>, std::allocator<std::basic_string<char> > >::_Vector_impl"*, align 8
  store %"struct.std::_Vector_base<std::basic_string<char>, std::allocator<std::basic_string<char> > >::_Vector_impl"* %this, %"struct.std::_Vector_base<std::basic_string<char>, std::allocator<std::basic_string<char> > >::_Vector_impl"** %1, align 8
  %2 = load %"struct.std::_Vector_base<std::basic_string<char>, std::allocator<std::basic_string<char> > >::_Vector_impl"** %1
  %3 = bitcast %"struct.std::_Vector_base<std::basic_string<char>, std::allocator<std::basic_string<char> > >::_Vector_impl"* %2 to %"class.std::allocator"*, !dbg !1981
  call void @_ZNSaISsED2Ev(%"class.std::allocator"* %3) #9, !dbg !1981
  ret void, !dbg !1983
}

declare void @__cxa_call_unexpected(i8*)

; Function Attrs: nounwind uwtable
define linkonce_odr void @_ZNSaISsED2Ev(%"class.std::allocator"* %this) unnamed_addr #4 align 2 {
  %1 = alloca %"class.std::allocator"*, align 8
  store %"class.std::allocator"* %this, %"class.std::allocator"** %1, align 8
  %2 = load %"class.std::allocator"** %1
  %3 = bitcast %"class.std::allocator"* %2 to %"class.__gnu_cxx::new_allocator"*, !dbg !1984
  call void @_ZN9__gnu_cxx13new_allocatorISsED2Ev(%"class.__gnu_cxx::new_allocator"* %3) #9, !dbg !1984
  ret void, !dbg !1987
}

; Function Attrs: nounwind uwtable
define linkonce_odr void @_ZN9__gnu_cxx13new_allocatorISsED2Ev(%"class.__gnu_cxx::new_allocator"* %this) unnamed_addr #4 align 2 {
  %1 = alloca %"class.__gnu_cxx::new_allocator"*, align 8
  store %"class.__gnu_cxx::new_allocator"* %this, %"class.__gnu_cxx::new_allocator"** %1, align 8
  %2 = load %"class.__gnu_cxx::new_allocator"** %1
  ret void, !dbg !1988
}

; Function Attrs: uwtable
define linkonce_odr void @_ZNSt12_Vector_baseISsSaISsEEC2Ev(%"struct.std::_Vector_base"* %this) unnamed_addr #2 align 2 {
  %1 = alloca %"struct.std::_Vector_base"*, align 8
  store %"struct.std::_Vector_base"* %this, %"struct.std::_Vector_base"** %1, align 8
  %2 = load %"struct.std::_Vector_base"** %1
  %3 = getelementptr inbounds %"struct.std::_Vector_base"* %2, i32 0, i32 0, !dbg !1990
  call void @_ZNSt12_Vector_baseISsSaISsEE12_Vector_implC2Ev(%"struct.std::_Vector_base<std::basic_string<char>, std::allocator<std::basic_string<char> > >::_Vector_impl"* %3), !dbg !1990
  ret void, !dbg !1990
}

; Function Attrs: nounwind uwtable
define linkonce_odr void @_ZNSt12_Vector_baseISsSaISsEE12_Vector_implC2Ev(%"struct.std::_Vector_base<std::basic_string<char>, std::allocator<std::basic_string<char> > >::_Vector_impl"* %this) unnamed_addr #4 align 2 {
  %1 = alloca %"struct.std::_Vector_base<std::basic_string<char>, std::allocator<std::basic_string<char> > >::_Vector_impl"*, align 8
  store %"struct.std::_Vector_base<std::basic_string<char>, std::allocator<std::basic_string<char> > >::_Vector_impl"* %this, %"struct.std::_Vector_base<std::basic_string<char>, std::allocator<std::basic_string<char> > >::_Vector_impl"** %1, align 8
  %2 = load %"struct.std::_Vector_base<std::basic_string<char>, std::allocator<std::basic_string<char> > >::_Vector_impl"** %1
  %3 = bitcast %"struct.std::_Vector_base<std::basic_string<char>, std::allocator<std::basic_string<char> > >::_Vector_impl"* %2 to %"class.std::allocator"*, !dbg !1991
  call void @_ZNSaISsEC2Ev(%"class.std::allocator"* %3) #9, !dbg !1991
  %4 = getelementptr inbounds %"struct.std::_Vector_base<std::basic_string<char>, std::allocator<std::basic_string<char> > >::_Vector_impl"* %2, i32 0, i32 0, !dbg !1991
  store %"class.std::basic_string"* null, %"class.std::basic_string"** %4, align 8, !dbg !1991
  %5 = getelementptr inbounds %"struct.std::_Vector_base<std::basic_string<char>, std::allocator<std::basic_string<char> > >::_Vector_impl"* %2, i32 0, i32 1, !dbg !1991
  store %"class.std::basic_string"* null, %"class.std::basic_string"** %5, align 8, !dbg !1991
  %6 = getelementptr inbounds %"struct.std::_Vector_base<std::basic_string<char>, std::allocator<std::basic_string<char> > >::_Vector_impl"* %2, i32 0, i32 2, !dbg !1991
  store %"class.std::basic_string"* null, %"class.std::basic_string"** %6, align 8, !dbg !1991
  ret void, !dbg !1991
}

; Function Attrs: nounwind uwtable
define linkonce_odr void @_ZNSaISsEC2Ev(%"class.std::allocator"* %this) unnamed_addr #4 align 2 {
  %1 = alloca %"class.std::allocator"*, align 8
  store %"class.std::allocator"* %this, %"class.std::allocator"** %1, align 8
  %2 = load %"class.std::allocator"** %1
  %3 = bitcast %"class.std::allocator"* %2 to %"class.__gnu_cxx::new_allocator"*, !dbg !1992
  call void @_ZN9__gnu_cxx13new_allocatorISsEC2Ev(%"class.__gnu_cxx::new_allocator"* %3) #9, !dbg !1992
  ret void, !dbg !1992
}

; Function Attrs: nounwind uwtable
define linkonce_odr void @_ZN9__gnu_cxx13new_allocatorISsEC2Ev(%"class.__gnu_cxx::new_allocator"* %this) unnamed_addr #4 align 2 {
  %1 = alloca %"class.__gnu_cxx::new_allocator"*, align 8
  store %"class.__gnu_cxx::new_allocator"* %this, %"class.__gnu_cxx::new_allocator"** %1, align 8
  %2 = load %"class.__gnu_cxx::new_allocator"** %1
  ret void, !dbg !1994
}

define internal void @_GLOBAL__I_a() section ".text.startup" {
  call void @__cxx_global_var_init(), !dbg !1996
  ret void, !dbg !1996
}

; Function Attrs: nounwind uwtable
define i32 @__cxa_atexit(void (i8*)* %func, i8* %arg, i8* %dso_handle) #4 {
  %1 = alloca i32, align 4
  %2 = alloca void (i8*)*, align 8
  %3 = alloca i8*, align 8
  %4 = alloca i8*, align 8
  %efp = alloca %struct.exit_function*, align 8
  store void (i8*)* %func, void (i8*)** %2, align 8
  store i8* %arg, i8** %3, align 8
  store i8* %dso_handle, i8** %4, align 8
  %5 = load void (i8*)** %2, align 8, !dbg !1997
  %6 = icmp eq void (i8*)* %5, null, !dbg !1997
  br i1 %6, label %7, label %8, !dbg !1997

; <label>:7                                       ; preds = %0
  store i32 0, i32* %1, !dbg !1999
  br label %31, !dbg !1999

; <label>:8                                       ; preds = %0
  %9 = call %struct.exit_function* @__new_exitfn() #20, !dbg !2001
  store %struct.exit_function* %9, %struct.exit_function** %efp, align 8, !dbg !2001
  %10 = load %struct.exit_function** %efp, align 8, !dbg !2002
  %11 = icmp eq %struct.exit_function* %10, null, !dbg !2002
  br i1 %11, label %12, label %13, !dbg !2002

; <label>:12                                      ; preds = %8
  store i32 -1, i32* %1, !dbg !2004
  br label %31, !dbg !2004

; <label>:13                                      ; preds = %8
  %14 = load void (i8*)** %2, align 8, !dbg !2006
  %15 = load %struct.exit_function** %efp, align 8, !dbg !2006
  %16 = getelementptr inbounds %struct.exit_function* %15, i32 0, i32 1, !dbg !2006
  %17 = bitcast %union.anon.610* %16 to %struct.anon.0.609*, !dbg !2006
  %18 = getelementptr inbounds %struct.anon.0.609* %17, i32 0, i32 0, !dbg !2006
  store void (i8*)* %14, void (i8*)** %18, align 8, !dbg !2006
  %19 = load i8** %3, align 8, !dbg !2007
  %20 = load %struct.exit_function** %efp, align 8, !dbg !2007
  %21 = getelementptr inbounds %struct.exit_function* %20, i32 0, i32 1, !dbg !2007
  %22 = bitcast %union.anon.610* %21 to %struct.anon.0.609*, !dbg !2007
  %23 = getelementptr inbounds %struct.anon.0.609* %22, i32 0, i32 1, !dbg !2007
  store i8* %19, i8** %23, align 8, !dbg !2007
  %24 = load i8** %4, align 8, !dbg !2008
  %25 = load %struct.exit_function** %efp, align 8, !dbg !2008
  %26 = getelementptr inbounds %struct.exit_function* %25, i32 0, i32 1, !dbg !2008
  %27 = bitcast %union.anon.610* %26 to %struct.anon.0.609*, !dbg !2008
  %28 = getelementptr inbounds %struct.anon.0.609* %27, i32 0, i32 2, !dbg !2008
  store i8* %24, i8** %28, align 8, !dbg !2008
  %29 = load %struct.exit_function** %efp, align 8, !dbg !2009
  %30 = getelementptr inbounds %struct.exit_function* %29, i32 0, i32 0, !dbg !2009
  store i64 3, i64* %30, align 8, !dbg !2009
  store i32 0, i32* %1, !dbg !2010
  br label %31, !dbg !2010

; <label>:31                                      ; preds = %13, %12, %7
  %32 = load i32* %1, !dbg !2011
  ret i32 %32, !dbg !2011
}

; Function Attrs: nounwind uwtable
define hidden %struct.exit_function* @__new_exitfn() #4 {
  %efp = alloca %struct.exit_function*, align 8
  %1 = load i32* @__exit_slots, align 4, !dbg !2012
  %2 = load i32* @__exit_count, align 4, !dbg !2012
  %3 = add nsw i32 %2, 1, !dbg !2012
  %4 = icmp slt i32 %1, %3, !dbg !2012
  br i1 %4, label %5, label %21, !dbg !2012

; <label>:5                                       ; preds = %0
  %6 = load %struct.exit_function** @__exit_function_table, align 8, !dbg !2014
  %7 = bitcast %struct.exit_function* %6 to i8*, !dbg !2014
  %8 = load i32* @__exit_slots, align 4, !dbg !2014
  %9 = add nsw i32 %8, 20, !dbg !2014
  %10 = sext i32 %9 to i64, !dbg !2014
  %11 = mul i64 %10, 32, !dbg !2014
  %12 = call noalias i8* @realloc(i8* %7, i64 %11) #21, !dbg !2014
  %13 = bitcast i8* %12 to %struct.exit_function*, !dbg !2014
  store %struct.exit_function* %13, %struct.exit_function** %efp, align 8, !dbg !2014
  %14 = load %struct.exit_function** %efp, align 8, !dbg !2016
  %15 = icmp eq %struct.exit_function* %14, null, !dbg !2016
  br i1 %15, label %16, label %17, !dbg !2016

; <label>:16                                      ; preds = %5
  store i32 12, i32* @errno, align 4, !dbg !2018
  br label %29, !dbg !2020

; <label>:17                                      ; preds = %5
  %18 = load %struct.exit_function** %efp, align 8, !dbg !2021
  store %struct.exit_function* %18, %struct.exit_function** @__exit_function_table, align 8, !dbg !2021
  %19 = load i32* @__exit_slots, align 4, !dbg !2022
  %20 = add nsw i32 %19, 20, !dbg !2022
  store i32 %20, i32* @__exit_slots, align 4, !dbg !2022
  br label %21, !dbg !2023

; <label>:21                                      ; preds = %17, %0
  store void (i32)* @__exit_handler, void (i32)** @__exit_cleanup, align 8, !dbg !2024
  %22 = load i32* @__exit_count, align 4, !dbg !2025
  %23 = add nsw i32 %22, 1, !dbg !2025
  store i32 %23, i32* @__exit_count, align 4, !dbg !2025
  %24 = sext i32 %22 to i64, !dbg !2025
  %25 = load %struct.exit_function** @__exit_function_table, align 8, !dbg !2025
  %26 = getelementptr inbounds %struct.exit_function* %25, i64 %24, !dbg !2025
  store %struct.exit_function* %26, %struct.exit_function** %efp, align 8, !dbg !2025
  %27 = load %struct.exit_function** %efp, align 8, !dbg !2026
  %28 = getelementptr inbounds %struct.exit_function* %27, i32 0, i32 0, !dbg !2026
  store i64 1, i64* %28, align 8, !dbg !2026
  br label %29, !dbg !2026

; <label>:29                                      ; preds = %21, %16
  %30 = load %struct.exit_function** %efp, align 8, !dbg !2027
  ret %struct.exit_function* %30, !dbg !2027
}

; Function Attrs: nounwind
declare noalias i8* @realloc(i8*, i64) #1

; Function Attrs: nounwind uwtable
define hidden void @__exit_handler(i32 %status) #4 {
  %1 = alloca i32, align 4
  %efp = alloca %struct.exit_function*, align 8
  store i32 %status, i32* %1, align 4
  br label %2, !dbg !2028

; <label>:2                                       ; preds = %5, %21, %14, %40, %33, %0
  %3 = load i32* @__exit_count, align 4, !dbg !2028
  %4 = icmp ne i32 %3, 0, !dbg !2028
  br i1 %4, label %5, label %51, !dbg !2028

; <label>:5                                       ; preds = %2
  %6 = load i32* @__exit_count, align 4, !dbg !2029
  %7 = add nsw i32 %6, -1, !dbg !2029
  store i32 %7, i32* @__exit_count, align 4, !dbg !2029
  %8 = sext i32 %7 to i64, !dbg !2029
  %9 = load %struct.exit_function** @__exit_function_table, align 8, !dbg !2029
  %10 = getelementptr inbounds %struct.exit_function* %9, i64 %8, !dbg !2029
  store %struct.exit_function* %10, %struct.exit_function** %efp, align 8, !dbg !2029
  %11 = load %struct.exit_function** %efp, align 8, !dbg !2031
  %12 = getelementptr inbounds %struct.exit_function* %11, i32 0, i32 0, !dbg !2031
  %13 = load i64* %12, align 8, !dbg !2031
  switch i64 %13, label %2 [
    i64 2, label %14
    i64 3, label %33
  ], !dbg !2031

; <label>:14                                      ; preds = %5
  %15 = load %struct.exit_function** %efp, align 8, !dbg !2032
  %16 = getelementptr inbounds %struct.exit_function* %15, i32 0, i32 1, !dbg !2032
  %17 = bitcast %union.anon.610* %16 to %struct.anon.617*, !dbg !2032
  %18 = getelementptr inbounds %struct.anon.617* %17, i32 0, i32 0, !dbg !2032
  %19 = load void (i32, i8*)** %18, align 8, !dbg !2032
  %20 = icmp ne void (i32, i8*)* %19, null, !dbg !2032
  br i1 %20, label %21, label %2, !dbg !2032

; <label>:21                                      ; preds = %14
  %22 = load %struct.exit_function** %efp, align 8, !dbg !2035
  %23 = getelementptr inbounds %struct.exit_function* %22, i32 0, i32 1, !dbg !2035
  %24 = bitcast %union.anon.610* %23 to %struct.anon.617*, !dbg !2035
  %25 = getelementptr inbounds %struct.anon.617* %24, i32 0, i32 0, !dbg !2035
  %26 = load void (i32, i8*)** %25, align 8, !dbg !2035
  %27 = load i32* %1, align 4, !dbg !2035
  %28 = load %struct.exit_function** %efp, align 8, !dbg !2035
  %29 = getelementptr inbounds %struct.exit_function* %28, i32 0, i32 1, !dbg !2035
  %30 = bitcast %union.anon.610* %29 to %struct.anon.617*, !dbg !2035
  %31 = getelementptr inbounds %struct.anon.617* %30, i32 0, i32 1, !dbg !2035
  %32 = load i8** %31, align 8, !dbg !2035
  call void %26(i32 %27, i8* %32) #20, !dbg !2035
  br label %2, !dbg !2037

; <label>:33                                      ; preds = %5
  %34 = load %struct.exit_function** %efp, align 8, !dbg !2038
  %35 = getelementptr inbounds %struct.exit_function* %34, i32 0, i32 1, !dbg !2038
  %36 = bitcast %union.anon.610* %35 to %struct.anon.0.609*, !dbg !2038
  %37 = getelementptr inbounds %struct.anon.0.609* %36, i32 0, i32 0, !dbg !2038
  %38 = load void (i8*)** %37, align 8, !dbg !2038
  %39 = icmp ne void (i8*)* %38, null, !dbg !2038
  br i1 %39, label %40, label %2, !dbg !2038

; <label>:40                                      ; preds = %33
  %41 = load %struct.exit_function** %efp, align 8, !dbg !2040
  %42 = getelementptr inbounds %struct.exit_function* %41, i32 0, i32 1, !dbg !2040
  %43 = bitcast %union.anon.610* %42 to %struct.anon.0.609*, !dbg !2040
  %44 = getelementptr inbounds %struct.anon.0.609* %43, i32 0, i32 0, !dbg !2040
  %45 = load void (i8*)** %44, align 8, !dbg !2040
  %46 = load %struct.exit_function** %efp, align 8, !dbg !2040
  %47 = getelementptr inbounds %struct.exit_function* %46, i32 0, i32 1, !dbg !2040
  %48 = bitcast %union.anon.610* %47 to %struct.anon.0.609*, !dbg !2040
  %49 = getelementptr inbounds %struct.anon.0.609* %48, i32 0, i32 1, !dbg !2040
  %50 = load i8** %49, align 8, !dbg !2040
  call void %45(i8* %50) #20, !dbg !2040
  br label %2, !dbg !2042

; <label>:51                                      ; preds = %2
  %52 = load %struct.exit_function** @__exit_function_table, align 8, !dbg !2043
  %53 = icmp ne %struct.exit_function* %52, null, !dbg !2043
  br i1 %53, label %54, label %57, !dbg !2043

; <label>:54                                      ; preds = %51
  %55 = load %struct.exit_function** @__exit_function_table, align 8, !dbg !2045
  %56 = bitcast %struct.exit_function* %55 to i8*, !dbg !2045
  call void @free(i8* %56) #21, !dbg !2045
  br label %57, !dbg !2045

; <label>:57                                      ; preds = %54, %51
  ret void, !dbg !2046
}

; Function Attrs: nounwind
declare void @free(i8*) #1

; Function Attrs: noreturn nounwind uwtable
define void @exit(i32 %rv) #12 {
  %1 = alloca i32, align 4
  store i32 %rv, i32* %1, align 4
  %2 = load void (i32)** @__exit_cleanup, align 8, !dbg !2047
  %3 = icmp ne void (i32)* %2, null, !dbg !2047
  br i1 %3, label %4, label %7, !dbg !2047

; <label>:4                                       ; preds = %0
  %5 = load void (i32)** @__exit_cleanup, align 8, !dbg !2049
  %6 = load i32* %1, align 4, !dbg !2049
  call void %5(i32 %6) #20, !dbg !2049
  br label %7, !dbg !2051

; <label>:7                                       ; preds = %4, %0
  call void @__uClibc_fini() #20, !dbg !2052
  call void @_stdio_term() #20, !dbg !2053
  %8 = load i32* %1, align 4, !dbg !2055
  call void @_exit(i32 %8) #22, !dbg !2055
  unreachable, !dbg !2055
}

; Function Attrs: noreturn
declare void @_exit(i32) #10

; Function Attrs: nounwind uwtable
define void @__uClibc_init() #4 {
  %1 = load i32* @__uClibc_init.been_there_done_that, align 4, !dbg !2056
  %2 = icmp ne i32 %1, 0, !dbg !2056
  br i1 %2, label %8, label %3, !dbg !2056

; <label>:3                                       ; preds = %0
  %4 = load i32* @__uClibc_init.been_there_done_that, align 4, !dbg !2058
  %5 = add nsw i32 %4, 1, !dbg !2058
  store i32 %5, i32* @__uClibc_init.been_there_done_that, align 4, !dbg !2058
  store i64 4096, i64* @__pagesize, align 8, !dbg !2059
  %6 = icmp ne i64 1, 0, !dbg !2060
  br i1 %6, label %7, label %8, !dbg !2060

; <label>:7                                       ; preds = %3
  call void @_stdio_init() #20, !dbg !2062
  br label %8, !dbg !2062

; <label>:8                                       ; preds = %0, %7, %3
  ret void, !dbg !2063
}

; Function Attrs: nounwind readnone
declare i64 @llvm.expect.i64(i64, i64) #3

; Function Attrs: nounwind uwtable
define void @__uClibc_fini() #4 {
  %1 = load void ()** @__app_fini, align 8, !dbg !2064
  %2 = icmp ne void ()* %1, null, !dbg !2064
  br i1 %2, label %3, label %5, !dbg !2064

; <label>:3                                       ; preds = %0
  %4 = load void ()** @__app_fini, align 8, !dbg !2066
  call void %4() #20, !dbg !2066
  br label %5, !dbg !2066

; <label>:5                                       ; preds = %3, %0
  %6 = load void ()** @__rtld_fini, align 8, !dbg !2067
  %7 = icmp ne void ()* %6, null, !dbg !2067
  br i1 %7, label %8, label %10, !dbg !2067

; <label>:8                                       ; preds = %5
  %9 = load void ()** @__rtld_fini, align 8, !dbg !2069
  call void %9() #20, !dbg !2069
  br label %10, !dbg !2069

; <label>:10                                      ; preds = %8, %5
  ret void, !dbg !2070
}

; Function Attrs: noreturn nounwind uwtable
define void @__uClibc_main(i32 (i32, i8**, i8**)* %main, i32 %argc, i8** %argv, void ()* %app_init, void ()* %app_fini, void ()* %rtld_fini, i8* %stack_end) #12 {
  %1 = alloca i32 (i32, i8**, i8**)*, align 8
  %2 = alloca i32, align 4
  %3 = alloca i8**, align 8
  %4 = alloca void ()*, align 8
  %5 = alloca void ()*, align 8
  %6 = alloca void ()*, align 8
  %7 = alloca i8*, align 8
  %aux_dat = alloca i64*, align 8
  %auxvt = alloca [15 x %struct.Elf64_auxv_t], align 16
  %auxv_entry = alloca %struct.Elf64_auxv_t*, align 8
  store i32 (i32, i8**, i8**)* %main, i32 (i32, i8**, i8**)** %1, align 8
  store i32 %argc, i32* %2, align 4
  store i8** %argv, i8*** %3, align 8
  store void ()* %app_init, void ()** %4, align 8
  store void ()* %app_fini, void ()** %5, align 8
  store void ()* %rtld_fini, void ()** %6, align 8
  store i8* %stack_end, i8** %7, align 8
  %8 = load i8** %7, align 8, !dbg !2071
  store i8* %8, i8** @__libc_stack_end, align 8, !dbg !2071
  %9 = load void ()** %6, align 8, !dbg !2072
  store void ()* %9, void ()** @__rtld_fini, align 8, !dbg !2072
  %10 = load i32* %2, align 4, !dbg !2073
  %11 = add nsw i32 %10, 1, !dbg !2073
  %12 = sext i32 %11 to i64, !dbg !2073
  %13 = load i8*** %3, align 8, !dbg !2073
  %14 = getelementptr inbounds i8** %13, i64 %12, !dbg !2073
  store i8** %14, i8*** @__environ, align 8, !dbg !2073
  %15 = load i8*** @__environ, align 8, !dbg !2074
  %16 = bitcast i8** %15 to i8*, !dbg !2074
  %17 = load i8*** %3, align 8, !dbg !2074
  %18 = load i8** %17, align 8, !dbg !2074
  %19 = icmp eq i8* %16, %18, !dbg !2074
  br i1 %19, label %20, label %25, !dbg !2074

; <label>:20                                      ; preds = %0
  %21 = load i32* %2, align 4, !dbg !2076
  %22 = sext i32 %21 to i64, !dbg !2076
  %23 = load i8*** %3, align 8, !dbg !2076
  %24 = getelementptr inbounds i8** %23, i64 %22, !dbg !2076
  store i8** %24, i8*** @__environ, align 8, !dbg !2076
  br label %25, !dbg !2078

; <label>:25                                      ; preds = %20, %0
  %26 = getelementptr inbounds [15 x %struct.Elf64_auxv_t]* %auxvt, i32 0, i32 0, !dbg !2079
  %27 = bitcast %struct.Elf64_auxv_t* %26 to i8*, !dbg !2079
  %28 = call i8* @memset(i8* %27, i32 0, i64 240) #21, !dbg !2079
  %29 = load i8*** @__environ, align 8, !dbg !2080
  %30 = bitcast i8** %29 to i64*, !dbg !2080
  store i64* %30, i64** %aux_dat, align 8, !dbg !2080
  br label %31, !dbg !2081

; <label>:31                                      ; preds = %31, %25
  %32 = load i64** %aux_dat, align 8, !dbg !2081
  %33 = load i64* %32, align 8, !dbg !2081
  %34 = icmp ne i64 %33, 0, !dbg !2081
  %35 = load i64** %aux_dat, align 8, !dbg !2082
  %36 = getelementptr inbounds i64* %35, i32 1, !dbg !2082
  store i64* %36, i64** %aux_dat, align 8, !dbg !2082
  br i1 %34, label %31, label %37, !dbg !2081

; <label>:37                                      ; preds = %31, %57
  %38 = load i64** %aux_dat, align 8, !dbg !2084
  %39 = load i64* %38, align 8, !dbg !2084
  %40 = icmp ne i64 %39, 0, !dbg !2084
  br i1 %40, label %41, label %60, !dbg !2084

; <label>:41                                      ; preds = %37
  %42 = load i64** %aux_dat, align 8, !dbg !2085
  %43 = bitcast i64* %42 to %struct.Elf64_auxv_t*, !dbg !2085
  store %struct.Elf64_auxv_t* %43, %struct.Elf64_auxv_t** %auxv_entry, align 8, !dbg !2085
  %44 = load %struct.Elf64_auxv_t** %auxv_entry, align 8, !dbg !2087
  %45 = getelementptr inbounds %struct.Elf64_auxv_t* %44, i32 0, i32 0, !dbg !2087
  %46 = load i64* %45, align 8, !dbg !2087
  %47 = icmp ule i64 %46, 14, !dbg !2087
  br i1 %47, label %48, label %57, !dbg !2087

; <label>:48                                      ; preds = %41
  %49 = load %struct.Elf64_auxv_t** %auxv_entry, align 8, !dbg !2089
  %50 = getelementptr inbounds %struct.Elf64_auxv_t* %49, i32 0, i32 0, !dbg !2089
  %51 = load i64* %50, align 8, !dbg !2089
  %52 = getelementptr inbounds [15 x %struct.Elf64_auxv_t]* %auxvt, i32 0, i64 %51, !dbg !2089
  %53 = bitcast %struct.Elf64_auxv_t* %52 to i8*, !dbg !2089
  %54 = load %struct.Elf64_auxv_t** %auxv_entry, align 8, !dbg !2089
  %55 = bitcast %struct.Elf64_auxv_t* %54 to i8*, !dbg !2089
  %56 = call i8* @memcpy(i8* %53, i8* %55, i64 16) #21, !dbg !2089
  br label %57, !dbg !2091

; <label>:57                                      ; preds = %48, %41
  %58 = load i64** %aux_dat, align 8, !dbg !2092
  %59 = getelementptr inbounds i64* %58, i64 2, !dbg !2092
  store i64* %59, i64** %aux_dat, align 8, !dbg !2092
  br label %37, !dbg !2093

; <label>:60                                      ; preds = %37
  call void @__uClibc_init() #20, !dbg !2094
  %61 = getelementptr inbounds [15 x %struct.Elf64_auxv_t]* %auxvt, i32 0, i64 6, !dbg !2095
  %62 = getelementptr inbounds %struct.Elf64_auxv_t* %61, i32 0, i32 1, !dbg !2095
  %63 = bitcast %union.anon.645* %62 to i64*, !dbg !2095
  %64 = load i64* %63, align 8, !dbg !2095
  %65 = icmp ne i64 %64, 0, !dbg !2095
  br i1 %65, label %66, label %71, !dbg !2095

; <label>:66                                      ; preds = %60
  %67 = getelementptr inbounds [15 x %struct.Elf64_auxv_t]* %auxvt, i32 0, i64 6, !dbg !2095
  %68 = getelementptr inbounds %struct.Elf64_auxv_t* %67, i32 0, i32 1, !dbg !2095
  %69 = bitcast %union.anon.645* %68 to i64*, !dbg !2095
  %70 = load i64* %69, align 8, !dbg !2095
  br label %71, !dbg !2095

; <label>:71                                      ; preds = %60, %66
  %72 = phi i64 [ %70, %66 ], [ 4096, %60 ], !dbg !2095
  store i64 %72, i64* @__pagesize, align 8, !dbg !2095
  %73 = getelementptr inbounds [15 x %struct.Elf64_auxv_t]* %auxvt, i32 0, i64 11, !dbg !2096
  %74 = getelementptr inbounds %struct.Elf64_auxv_t* %73, i32 0, i32 1, !dbg !2096
  %75 = bitcast %union.anon.645* %74 to i64*, !dbg !2096
  %76 = load i64* %75, align 8, !dbg !2096
  %77 = icmp eq i64 %76, -1, !dbg !2096
  br i1 %77, label %78, label %81, !dbg !2096

; <label>:78                                      ; preds = %71
  %79 = call i32 @__check_suid() #20, !dbg !2096
  %80 = icmp ne i32 %79, 0, !dbg !2096
  br i1 %80, label %107, label %81, !dbg !2096

; <label>:81                                      ; preds = %78, %71
  %82 = getelementptr inbounds [15 x %struct.Elf64_auxv_t]* %auxvt, i32 0, i64 11, !dbg !2096
  %83 = getelementptr inbounds %struct.Elf64_auxv_t* %82, i32 0, i32 1, !dbg !2096
  %84 = bitcast %union.anon.645* %83 to i64*, !dbg !2096
  %85 = load i64* %84, align 8, !dbg !2096
  %86 = icmp ne i64 %85, -1, !dbg !2096
  br i1 %86, label %87, label %108, !dbg !2096

; <label>:87                                      ; preds = %81
  %88 = getelementptr inbounds [15 x %struct.Elf64_auxv_t]* %auxvt, i32 0, i64 11, !dbg !2096
  %89 = getelementptr inbounds %struct.Elf64_auxv_t* %88, i32 0, i32 1, !dbg !2096
  %90 = bitcast %union.anon.645* %89 to i64*, !dbg !2096
  %91 = load i64* %90, align 8, !dbg !2096
  %92 = getelementptr inbounds [15 x %struct.Elf64_auxv_t]* %auxvt, i32 0, i64 12, !dbg !2096
  %93 = getelementptr inbounds %struct.Elf64_auxv_t* %92, i32 0, i32 1, !dbg !2096
  %94 = bitcast %union.anon.645* %93 to i64*, !dbg !2096
  %95 = load i64* %94, align 8, !dbg !2096
  %96 = icmp ne i64 %91, %95, !dbg !2096
  br i1 %96, label %107, label %97, !dbg !2096

; <label>:97                                      ; preds = %87
  %98 = getelementptr inbounds [15 x %struct.Elf64_auxv_t]* %auxvt, i32 0, i64 13, !dbg !2096
  %99 = getelementptr inbounds %struct.Elf64_auxv_t* %98, i32 0, i32 1, !dbg !2096
  %100 = bitcast %union.anon.645* %99 to i64*, !dbg !2096
  %101 = load i64* %100, align 8, !dbg !2096
  %102 = getelementptr inbounds [15 x %struct.Elf64_auxv_t]* %auxvt, i32 0, i64 14, !dbg !2096
  %103 = getelementptr inbounds %struct.Elf64_auxv_t* %102, i32 0, i32 1, !dbg !2096
  %104 = bitcast %union.anon.645* %103 to i64*, !dbg !2096
  %105 = load i64* %104, align 8, !dbg !2096
  %106 = icmp ne i64 %101, %105, !dbg !2096
  br i1 %106, label %107, label %108, !dbg !2096

; <label>:107                                     ; preds = %97, %87, %78
  call void @__check_one_fd(i32 0, i32 131072) #20, !dbg !2098
  call void @__check_one_fd(i32 1, i32 131074) #20, !dbg !2100
  call void @__check_one_fd(i32 2, i32 131074) #20, !dbg !2101
  br label %108, !dbg !2102

; <label>:108                                     ; preds = %107, %97, %81
  %109 = load i8*** %3, align 8, !dbg !2103
  %110 = load i8** %109, align 8, !dbg !2103
  store i8* %110, i8** @__uclibc_progname, align 8, !dbg !2103
  %111 = load void ()** %5, align 8, !dbg !2104
  store void ()* %111, void ()** @__app_fini, align 8, !dbg !2104
  %112 = load void ()** %4, align 8, !dbg !2105
  %113 = icmp ne void ()* %112, null, !dbg !2105
  br i1 %113, label %114, label %116, !dbg !2105

; <label>:114                                     ; preds = %108
  %115 = load void ()** %4, align 8, !dbg !2107
  call void %115() #20, !dbg !2107
  br label %116, !dbg !2109

; <label>:116                                     ; preds = %114, %108
  %117 = icmp ne i64 1, 0, !dbg !2110
  br i1 %117, label %118, label %120, !dbg !2110

; <label>:118                                     ; preds = %116
  %119 = call i32* @__errno_location() #23, !dbg !2112
  store i32 0, i32* %119, align 4, !dbg !2112
  br label %120, !dbg !2112

; <label>:120                                     ; preds = %118, %116
  %121 = icmp ne i64 1, 0, !dbg !2113
  br i1 %121, label %122, label %124, !dbg !2113

; <label>:122                                     ; preds = %120
  %123 = call i32* @__h_errno_location() #23, !dbg !2115
  store i32 0, i32* %123, align 4, !dbg !2115
  br label %124, !dbg !2115

; <label>:124                                     ; preds = %122, %120
  %125 = load i32 (i32, i8**, i8**)** %1, align 8, !dbg !2116
  %126 = load i32* %2, align 4, !dbg !2116
  %127 = load i8*** %3, align 8, !dbg !2116
  %128 = load i8*** @__environ, align 8, !dbg !2116
  %129 = call i32 %125(i32 %126, i8** %127, i8** %128) #20, !dbg !2116
  call void @exit(i32 %129) #24, !dbg !2116
  unreachable, !dbg !2116
}

declare i32 @fcntl(i32, i32, ...) #0

declare i32 @open(i8*, i32, ...) #0

; Function Attrs: nounwind
declare i32 @fstat(i32, %struct.stat.644*) #1

; Function Attrs: noreturn nounwind
declare void @abort() #13

; Function Attrs: nounwind
declare i32 @getuid() #1

; Function Attrs: nounwind
declare i32 @geteuid() #1

; Function Attrs: nounwind
declare i32 @getgid() #1

; Function Attrs: nounwind
declare i32 @getegid() #1

; Function Attrs: nounwind uwtable
define internal i32 @__check_suid() #4 {
  %1 = alloca i32, align 4
  %uid = alloca i32, align 4
  %euid = alloca i32, align 4
  %gid = alloca i32, align 4
  %egid = alloca i32, align 4
  %2 = call i32 @getuid() #21, !dbg !2117
  store i32 %2, i32* %uid, align 4, !dbg !2117
  %3 = call i32 @geteuid() #21, !dbg !2119
  store i32 %3, i32* %euid, align 4, !dbg !2119
  %4 = call i32 @getgid() #21, !dbg !2120
  store i32 %4, i32* %gid, align 4, !dbg !2120
  %5 = call i32 @getegid() #21, !dbg !2121
  store i32 %5, i32* %egid, align 4, !dbg !2121
  %6 = load i32* %uid, align 4, !dbg !2122
  %7 = load i32* %euid, align 4, !dbg !2122
  %8 = icmp eq i32 %6, %7, !dbg !2122
  br i1 %8, label %9, label %14, !dbg !2122

; <label>:9                                       ; preds = %0
  %10 = load i32* %gid, align 4, !dbg !2122
  %11 = load i32* %egid, align 4, !dbg !2122
  %12 = icmp eq i32 %10, %11, !dbg !2122
  br i1 %12, label %13, label %14, !dbg !2122

; <label>:13                                      ; preds = %9
  store i32 0, i32* %1, !dbg !2124
  br label %15, !dbg !2124

; <label>:14                                      ; preds = %9, %0
  store i32 1, i32* %1, !dbg !2126
  br label %15, !dbg !2126

; <label>:15                                      ; preds = %14, %13
  %16 = load i32* %1, !dbg !2127
  ret i32 %16, !dbg !2127
}

; Function Attrs: nounwind uwtable
define internal void @__check_one_fd(i32 %fd, i32 %mode) #4 {
  %1 = alloca i32, align 4
  %2 = alloca i32, align 4
  %st = alloca %struct.stat.644, align 8
  %nullfd = alloca i32, align 4
  store i32 %fd, i32* %1, align 4
  store i32 %mode, i32* %2, align 4
  %3 = load i32* %1, align 4, !dbg !2128
  %4 = call i32 (i32, i32, ...)* @fcntl(i32 %3, i32 1) #20, !dbg !2128
  %5 = icmp eq i32 %4, -1, !dbg !2128
  br i1 %5, label %6, label %10, !dbg !2128

; <label>:6                                       ; preds = %0
  %7 = call i32* @__errno_location() #23, !dbg !2128
  %8 = load i32* %7, align 4, !dbg !2128
  %9 = icmp eq i32 %8, 9, !dbg !2128
  br label %10

; <label>:10                                      ; preds = %6, %0
  %11 = phi i1 [ false, %0 ], [ %9, %6 ]
  %12 = xor i1 %11, true
  %13 = xor i1 %12, true
  %14 = zext i1 %13 to i32
  %15 = sext i32 %14 to i64
  %16 = icmp ne i64 %15, 0
  br i1 %16, label %17, label %38

; <label>:17                                      ; preds = %10
  %18 = load i32* %2, align 4, !dbg !2130
  %19 = call i32 (i8*, i32, ...)* @open(i8* getelementptr inbounds ([10 x i8]* @.str112, i32 0, i32 0), i32 %18) #20, !dbg !2130
  store i32 %19, i32* %nullfd, align 4, !dbg !2130
  %20 = load i32* %nullfd, align 4, !dbg !2132
  %21 = load i32* %1, align 4, !dbg !2132
  %22 = icmp ne i32 %20, %21, !dbg !2132
  br i1 %22, label %37, label %23, !dbg !2132

; <label>:23                                      ; preds = %17
  %24 = load i32* %1, align 4, !dbg !2132
  %25 = call i32 @fstat(i32 %24, %struct.stat.644* %st) #21, !dbg !2132
  %26 = icmp ne i32 %25, 0, !dbg !2132
  br i1 %26, label %37, label %27, !dbg !2132

; <label>:27                                      ; preds = %23
  %28 = getelementptr inbounds %struct.stat.644* %st, i32 0, i32 3, !dbg !2132
  %29 = load i32* %28, align 4, !dbg !2132
  %30 = and i32 %29, 61440, !dbg !2132
  %31 = icmp eq i32 %30, 8192, !dbg !2132
  br i1 %31, label %32, label %37, !dbg !2132

; <label>:32                                      ; preds = %27
  %33 = getelementptr inbounds %struct.stat.644* %st, i32 0, i32 7, !dbg !2132
  %34 = load i64* %33, align 8, !dbg !2132
  %35 = call i64 @gnu_dev_makedev(i32 1, i32 3) #21, !dbg !2134
  %36 = icmp ne i64 %34, %35, !dbg !2134
  br i1 %36, label %37, label %38, !dbg !2134

; <label>:37                                      ; preds = %32, %27, %23, %17
  call void @abort() #24, !dbg !2135
  unreachable, !dbg !2135

; <label>:38                                      ; preds = %32, %10
  ret void, !dbg !2137
}

; Function Attrs: inlinehint nounwind uwtable
define internal i64 @gnu_dev_makedev(i32 %__major, i32 %__minor) #5 {
  %1 = alloca i32, align 4
  %2 = alloca i32, align 4
  store i32 %__major, i32* %1, align 4
  store i32 %__minor, i32* %2, align 4
  %3 = load i32* %2, align 4, !dbg !2138
  %4 = and i32 %3, 255, !dbg !2138
  %5 = load i32* %1, align 4, !dbg !2138
  %6 = and i32 %5, 4095, !dbg !2138
  %int_cast_to_i64 = zext i32 8 to i64
  call void @klee_overshift_check(i64 32, i64 %int_cast_to_i64), !dbg !2138
  %7 = shl i32 %6, 8, !dbg !2138
  %8 = or i32 %4, %7, !dbg !2138
  %9 = zext i32 %8 to i64, !dbg !2138
  %10 = load i32* %2, align 4, !dbg !2138
  %11 = and i32 %10, -256, !dbg !2138
  %12 = zext i32 %11 to i64, !dbg !2138
  %int_cast_to_i641 = bitcast i64 12 to i64
  call void @klee_overshift_check(i64 64, i64 %int_cast_to_i641), !dbg !2138
  %13 = shl i64 %12, 12, !dbg !2138
  %14 = or i64 %9, %13, !dbg !2138
  %15 = load i32* %1, align 4, !dbg !2138
  %16 = and i32 %15, -4096, !dbg !2138
  %17 = zext i32 %16 to i64, !dbg !2138
  %int_cast_to_i642 = bitcast i64 32 to i64
  call void @klee_overshift_check(i64 64, i64 %int_cast_to_i642), !dbg !2138
  %18 = shl i64 %17, 32, !dbg !2138
  %19 = or i64 %14, %18, !dbg !2138
  ret i64 %19, !dbg !2138
}

; Function Attrs: nounwind readnone uwtable
define weak i32* @__errno_location() #14 {
  ret i32* @errno, !dbg !2140
}

; Function Attrs: nounwind readnone uwtable
define weak i32* @__h_errno_location() #14 {
  ret i32* @h_errno, !dbg !2141
}

; Function Attrs: nounwind uwtable
define hidden void @_stdio_term() #4 {
  %ptr = alloca %struct.__STDIO_FILE_STRUCT.273*, align 8
  %1 = load %struct.__STDIO_FILE_STRUCT.273** @_stdio_openlist, align 8, !dbg !2142
  store %struct.__STDIO_FILE_STRUCT.273* %1, %struct.__STDIO_FILE_STRUCT.273** %ptr, align 8, !dbg !2142
  br label %2, !dbg !2142

; <label>:2                                       ; preds = %15, %0
  %3 = load %struct.__STDIO_FILE_STRUCT.273** %ptr, align 8, !dbg !2142
  %4 = icmp ne %struct.__STDIO_FILE_STRUCT.273* %3, null, !dbg !2142
  br i1 %4, label %5, label %19, !dbg !2142

; <label>:5                                       ; preds = %2
  %6 = load %struct.__STDIO_FILE_STRUCT.273** %ptr, align 8, !dbg !2144
  %7 = getelementptr inbounds %struct.__STDIO_FILE_STRUCT.273* %6, i32 0, i32 0, !dbg !2144
  %8 = load i16* %7, align 2, !dbg !2144
  %9 = zext i16 %8 to i32, !dbg !2144
  %10 = and i32 %9, 64, !dbg !2144
  %11 = icmp ne i32 %10, 0, !dbg !2144
  br i1 %11, label %12, label %15, !dbg !2144

; <label>:12                                      ; preds = %5
  %13 = load %struct.__STDIO_FILE_STRUCT.273** %ptr, align 8, !dbg !2147
  %14 = call i64 @__stdio_wcommit(%struct.__STDIO_FILE_STRUCT.273* %13) #20, !dbg !2147
  br label %15, !dbg !2149

; <label>:15                                      ; preds = %5, %12
  %16 = load %struct.__STDIO_FILE_STRUCT.273** %ptr, align 8, !dbg !2142
  %17 = getelementptr inbounds %struct.__STDIO_FILE_STRUCT.273* %16, i32 0, i32 9, !dbg !2142
  %18 = load %struct.__STDIO_FILE_STRUCT.273** %17, align 8, !dbg !2142
  store %struct.__STDIO_FILE_STRUCT.273* %18, %struct.__STDIO_FILE_STRUCT.273** %ptr, align 8, !dbg !2142
  br label %2, !dbg !2142

; <label>:19                                      ; preds = %2
  ret void, !dbg !2150
}

; Function Attrs: nounwind uwtable
define hidden void @_stdio_init() #4 {
  %old_errno = alloca i32, align 4
  %1 = load i32* @errno, align 4, !dbg !2151
  store i32 %1, i32* %old_errno, align 4, !dbg !2151
  %2 = call i32 @isatty(i32 0) #21, !dbg !2152
  %3 = sub nsw i32 1, %2, !dbg !2152
  %4 = mul i32 %3, 256, !dbg !2152
  %5 = load i16* getelementptr inbounds ([3 x %struct.__STDIO_FILE_STRUCT.273]* @_stdio_streams, i32 0, i64 0, i32 0), align 2, !dbg !2152
  %6 = zext i16 %5 to i32, !dbg !2152
  %7 = xor i32 %6, %4, !dbg !2152
  %8 = trunc i32 %7 to i16, !dbg !2152
  store i16 %8, i16* getelementptr inbounds ([3 x %struct.__STDIO_FILE_STRUCT.273]* @_stdio_streams, i32 0, i64 0, i32 0), align 2, !dbg !2152
  %9 = call i32 @isatty(i32 1) #21, !dbg !2153
  %10 = sub nsw i32 1, %9, !dbg !2153
  %11 = mul i32 %10, 256, !dbg !2153
  %12 = load i16* getelementptr inbounds ([3 x %struct.__STDIO_FILE_STRUCT.273]* @_stdio_streams, i32 0, i64 1, i32 0), align 2, !dbg !2153
  %13 = zext i16 %12 to i32, !dbg !2153
  %14 = xor i32 %13, %11, !dbg !2153
  %15 = trunc i32 %14 to i16, !dbg !2153
  store i16 %15, i16* getelementptr inbounds ([3 x %struct.__STDIO_FILE_STRUCT.273]* @_stdio_streams, i32 0, i64 1, i32 0), align 2, !dbg !2153
  %16 = load i32* %old_errno, align 4, !dbg !2154
  store i32 %16, i32* @errno, align 4, !dbg !2154
  ret void, !dbg !2155
}

; Function Attrs: nounwind uwtable
define hidden i64 @__stdio_wcommit(%struct.__STDIO_FILE_STRUCT.273* noalias %stream) #4 {
  %1 = alloca %struct.__STDIO_FILE_STRUCT.273*, align 8
  %bufsize = alloca i64, align 8
  store %struct.__STDIO_FILE_STRUCT.273* %stream, %struct.__STDIO_FILE_STRUCT.273** %1, align 8
  %2 = load %struct.__STDIO_FILE_STRUCT.273** %1, align 8, !dbg !2156
  %3 = getelementptr inbounds %struct.__STDIO_FILE_STRUCT.273* %2, i32 0, i32 5, !dbg !2156
  %4 = load i8** %3, align 8, !dbg !2156
  %5 = load %struct.__STDIO_FILE_STRUCT.273** %1, align 8, !dbg !2156
  %6 = getelementptr inbounds %struct.__STDIO_FILE_STRUCT.273* %5, i32 0, i32 3, !dbg !2156
  %7 = load i8** %6, align 8, !dbg !2156
  %8 = ptrtoint i8* %4 to i64, !dbg !2156
  %9 = ptrtoint i8* %7 to i64, !dbg !2156
  %10 = sub i64 %8, %9, !dbg !2156
  store i64 %10, i64* %bufsize, align 8, !dbg !2156
  %11 = icmp ne i64 %10, 0, !dbg !2156
  br i1 %11, label %12, label %24, !dbg !2156

; <label>:12                                      ; preds = %0
  %13 = load %struct.__STDIO_FILE_STRUCT.273** %1, align 8, !dbg !2158
  %14 = getelementptr inbounds %struct.__STDIO_FILE_STRUCT.273* %13, i32 0, i32 3, !dbg !2158
  %15 = load i8** %14, align 8, !dbg !2158
  %16 = load %struct.__STDIO_FILE_STRUCT.273** %1, align 8, !dbg !2158
  %17 = getelementptr inbounds %struct.__STDIO_FILE_STRUCT.273* %16, i32 0, i32 5, !dbg !2158
  store i8* %15, i8** %17, align 8, !dbg !2158
  %18 = load %struct.__STDIO_FILE_STRUCT.273** %1, align 8, !dbg !2160
  %19 = load %struct.__STDIO_FILE_STRUCT.273** %1, align 8, !dbg !2160
  %20 = getelementptr inbounds %struct.__STDIO_FILE_STRUCT.273* %19, i32 0, i32 3, !dbg !2160
  %21 = load i8** %20, align 8, !dbg !2160
  %22 = load i64* %bufsize, align 8, !dbg !2160
  %23 = call i64 @__stdio_WRITE(%struct.__STDIO_FILE_STRUCT.273* %18, i8* %21, i64 %22) #20, !dbg !2160
  br label %24, !dbg !2161

; <label>:24                                      ; preds = %12, %0
  %25 = load %struct.__STDIO_FILE_STRUCT.273** %1, align 8, !dbg !2162
  %26 = getelementptr inbounds %struct.__STDIO_FILE_STRUCT.273* %25, i32 0, i32 5, !dbg !2162
  %27 = load i8** %26, align 8, !dbg !2162
  %28 = load %struct.__STDIO_FILE_STRUCT.273** %1, align 8, !dbg !2162
  %29 = getelementptr inbounds %struct.__STDIO_FILE_STRUCT.273* %28, i32 0, i32 3, !dbg !2162
  %30 = load i8** %29, align 8, !dbg !2162
  %31 = ptrtoint i8* %27 to i64, !dbg !2162
  %32 = ptrtoint i8* %30 to i64, !dbg !2162
  %33 = sub i64 %31, %32, !dbg !2162
  ret i64 %33, !dbg !2162
}

; Function Attrs: nounwind uwtable
define i8* @memcpy(i8* noalias %s1, i8* noalias %s2, i64 %n) #4 {
  %1 = alloca i8*, align 8
  %2 = alloca i8*, align 8
  %3 = alloca i64, align 8
  %r1 = alloca i8*, align 8
  %r2 = alloca i8*, align 8
  store i8* %s1, i8** %1, align 8
  store i8* %s2, i8** %2, align 8
  store i64 %n, i64* %3, align 8
  %4 = load i8** %1, align 8, !dbg !2163
  store i8* %4, i8** %r1, align 8, !dbg !2163
  %5 = load i8** %2, align 8, !dbg !2164
  store i8* %5, i8** %r2, align 8, !dbg !2164
  br label %6, !dbg !2165

; <label>:6                                       ; preds = %9, %0
  %7 = load i64* %3, align 8, !dbg !2165
  %8 = icmp ne i64 %7, 0, !dbg !2165
  br i1 %8, label %9, label %17, !dbg !2165

; <label>:9                                       ; preds = %6
  %10 = load i8** %r2, align 8, !dbg !2166
  %11 = getelementptr inbounds i8* %10, i32 1, !dbg !2166
  store i8* %11, i8** %r2, align 8, !dbg !2166
  %12 = load i8* %10, align 1, !dbg !2166
  %13 = load i8** %r1, align 8, !dbg !2166
  %14 = getelementptr inbounds i8* %13, i32 1, !dbg !2166
  store i8* %14, i8** %r1, align 8, !dbg !2166
  store i8 %12, i8* %13, align 1, !dbg !2166
  %15 = load i64* %3, align 8, !dbg !2168
  %16 = add i64 %15, -1, !dbg !2168
  store i64 %16, i64* %3, align 8, !dbg !2168
  br label %6, !dbg !2169

; <label>:17                                      ; preds = %6
  %18 = load i8** %1, align 8, !dbg !2170
  ret i8* %18, !dbg !2170
}

; Function Attrs: nounwind uwtable
define i8* @memset(i8* %s, i32 %c, i64 %n) #4 {
  %1 = alloca i8*, align 8
  %2 = alloca i32, align 4
  %3 = alloca i64, align 8
  %p = alloca i8*, align 8
  store i8* %s, i8** %1, align 8
  store i32 %c, i32* %2, align 4
  store i64 %n, i64* %3, align 8
  %4 = load i8** %1, align 8, !dbg !2171
  store i8* %4, i8** %p, align 8, !dbg !2171
  br label %5, !dbg !2172

; <label>:5                                       ; preds = %8, %0
  %6 = load i64* %3, align 8, !dbg !2172
  %7 = icmp ne i64 %6, 0, !dbg !2172
  br i1 %7, label %8, label %15, !dbg !2172

; <label>:8                                       ; preds = %5
  %9 = load i32* %2, align 4, !dbg !2173
  %10 = trunc i32 %9 to i8, !dbg !2173
  %11 = load i8** %p, align 8, !dbg !2173
  %12 = getelementptr inbounds i8* %11, i32 1, !dbg !2173
  store i8* %12, i8** %p, align 8, !dbg !2173
  store i8 %10, i8* %11, align 1, !dbg !2173
  %13 = load i64* %3, align 8, !dbg !2175
  %14 = add i64 %13, -1, !dbg !2175
  store i64 %14, i64* %3, align 8, !dbg !2175
  br label %5, !dbg !2176

; <label>:15                                      ; preds = %5
  %16 = load i8** %1, align 8, !dbg !2177
  ret i8* %16, !dbg !2177
}

; Function Attrs: nounwind uwtable
define i32 @isatty(i32 %fd) #4 {
  %1 = alloca i32, align 4
  %term = alloca %struct.termios.442, align 4
  store i32 %fd, i32* %1, align 4
  %2 = load i32* %1, align 4, !dbg !2178
  %3 = call i32 @tcgetattr(i32 %2, %struct.termios.442* %term) #21, !dbg !2178
  %4 = icmp eq i32 %3, 0, !dbg !2178
  %5 = zext i1 %4 to i32, !dbg !2178
  ret i32 %5, !dbg !2178
}

; Function Attrs: nounwind uwtable
define i32 @tcgetattr(i32 %fd, %struct.termios.442* %termios_p) #4 {
  %1 = alloca i32, align 4
  %2 = alloca %struct.termios.442*, align 8
  %k_termios = alloca %struct.__kernel_termios, align 4
  %retval = alloca i32, align 4
  store i32 %fd, i32* %1, align 4
  store %struct.termios.442* %termios_p, %struct.termios.442** %2, align 8
  %3 = load i32* %1, align 4, !dbg !2179
  %4 = call i32 (i32, i64, ...)* @ioctl(i32 %3, i64 21505, %struct.__kernel_termios* %k_termios) #21, !dbg !2179
  store i32 %4, i32* %retval, align 4, !dbg !2179
  %5 = getelementptr inbounds %struct.__kernel_termios* %k_termios, i32 0, i32 0, !dbg !2180
  %6 = load i32* %5, align 4, !dbg !2180
  %7 = load %struct.termios.442** %2, align 8, !dbg !2180
  %8 = getelementptr inbounds %struct.termios.442* %7, i32 0, i32 0, !dbg !2180
  store i32 %6, i32* %8, align 4, !dbg !2180
  %9 = getelementptr inbounds %struct.__kernel_termios* %k_termios, i32 0, i32 1, !dbg !2181
  %10 = load i32* %9, align 4, !dbg !2181
  %11 = load %struct.termios.442** %2, align 8, !dbg !2181
  %12 = getelementptr inbounds %struct.termios.442* %11, i32 0, i32 1, !dbg !2181
  store i32 %10, i32* %12, align 4, !dbg !2181
  %13 = getelementptr inbounds %struct.__kernel_termios* %k_termios, i32 0, i32 2, !dbg !2182
  %14 = load i32* %13, align 4, !dbg !2182
  %15 = load %struct.termios.442** %2, align 8, !dbg !2182
  %16 = getelementptr inbounds %struct.termios.442* %15, i32 0, i32 2, !dbg !2182
  store i32 %14, i32* %16, align 4, !dbg !2182
  %17 = getelementptr inbounds %struct.__kernel_termios* %k_termios, i32 0, i32 3, !dbg !2183
  %18 = load i32* %17, align 4, !dbg !2183
  %19 = load %struct.termios.442** %2, align 8, !dbg !2183
  %20 = getelementptr inbounds %struct.termios.442* %19, i32 0, i32 3, !dbg !2183
  store i32 %18, i32* %20, align 4, !dbg !2183
  %21 = getelementptr inbounds %struct.__kernel_termios* %k_termios, i32 0, i32 4, !dbg !2184
  %22 = load i8* %21, align 1, !dbg !2184
  %23 = load %struct.termios.442** %2, align 8, !dbg !2184
  %24 = getelementptr inbounds %struct.termios.442* %23, i32 0, i32 4, !dbg !2184
  store i8 %22, i8* %24, align 1, !dbg !2184
  %25 = load %struct.termios.442** %2, align 8, !dbg !2185
  %26 = getelementptr inbounds %struct.termios.442* %25, i32 0, i32 5, !dbg !2185
  %27 = getelementptr inbounds [32 x i8]* %26, i32 0, i64 0, !dbg !2185
  %28 = getelementptr inbounds %struct.__kernel_termios* %k_termios, i32 0, i32 5, !dbg !2185
  %29 = getelementptr inbounds [19 x i8]* %28, i32 0, i64 0, !dbg !2185
  %30 = call i8* @mempcpy(i8* %27, i8* %29, i64 19) #21, !dbg !2185
  %31 = call i8* @memset(i8* %30, i32 0, i64 13) #21, !dbg !2185
  %32 = load i32* %retval, align 4, !dbg !2188
  ret i32 %32, !dbg !2188
}

; Function Attrs: nounwind
declare i32 @ioctl(i32, i64, ...) #1

; Function Attrs: nounwind uwtable
define hidden i64 @__stdio_WRITE(%struct.__STDIO_FILE_STRUCT.273* %stream, i8* %buf, i64 %bufsize) #4 {
  %1 = alloca i64, align 8
  %2 = alloca %struct.__STDIO_FILE_STRUCT.273*, align 8
  %3 = alloca i8*, align 8
  %4 = alloca i64, align 8
  %todo = alloca i64, align 8
  %rv = alloca i64, align 8
  %stodo = alloca i64, align 8
  %s = alloca i8*, align 8
  store %struct.__STDIO_FILE_STRUCT.273* %stream, %struct.__STDIO_FILE_STRUCT.273** %2, align 8
  store i8* %buf, i8** %3, align 8
  store i64 %bufsize, i64* %4, align 8
  %5 = load i64* %4, align 8, !dbg !2189
  store i64 %5, i64* %todo, align 8, !dbg !2189
  br label %6, !dbg !2190

; <label>:6                                       ; preds = %23, %0
  %7 = load i64* %todo, align 8, !dbg !2191
  %8 = icmp eq i64 %7, 0, !dbg !2191
  br i1 %8, label %9, label %11, !dbg !2191

; <label>:9                                       ; preds = %6
  %10 = load i64* %4, align 8, !dbg !2194
  store i64 %10, i64* %1, !dbg !2194
  br label %95, !dbg !2194

; <label>:11                                      ; preds = %6
  %12 = load i64* %todo, align 8, !dbg !2196
  %13 = icmp ule i64 %12, 9223372036854775807, !dbg !2196
  %14 = load i64* %todo, align 8, !dbg !2196
  %15 = select i1 %13, i64 %14, i64 9223372036854775807, !dbg !2196
  store i64 %15, i64* %stodo, align 8, !dbg !2196
  %16 = load %struct.__STDIO_FILE_STRUCT.273** %2, align 8, !dbg !2197
  %17 = getelementptr inbounds %struct.__STDIO_FILE_STRUCT.273* %16, i32 0, i32 2, !dbg !2197
  %18 = load i32* %17, align 4, !dbg !2197
  %19 = load i8** %3, align 8, !dbg !2197
  %20 = load i64* %stodo, align 8, !dbg !2197
  %21 = call i64 @write(i32 %18, i8* %19, i64 %20) #20, !dbg !2197
  store i64 %21, i64* %rv, align 8, !dbg !2197
  %22 = icmp sge i64 %21, 0, !dbg !2197
  br i1 %22, label %23, label %30, !dbg !2197

; <label>:23                                      ; preds = %11
  %24 = load i64* %rv, align 8, !dbg !2199
  %25 = load i64* %todo, align 8, !dbg !2199
  %26 = sub i64 %25, %24, !dbg !2199
  store i64 %26, i64* %todo, align 8, !dbg !2199
  %27 = load i64* %rv, align 8, !dbg !2201
  %28 = load i8** %3, align 8, !dbg !2201
  %29 = getelementptr inbounds i8* %28, i64 %27, !dbg !2201
  store i8* %29, i8** %3, align 8, !dbg !2201
  br label %6, !dbg !2202

; <label>:30                                      ; preds = %11
  %31 = load %struct.__STDIO_FILE_STRUCT.273** %2, align 8, !dbg !2203
  %32 = getelementptr inbounds %struct.__STDIO_FILE_STRUCT.273* %31, i32 0, i32 0, !dbg !2203
  %33 = load i16* %32, align 2, !dbg !2203
  %34 = zext i16 %33 to i32, !dbg !2203
  %35 = or i32 %34, 8, !dbg !2203
  %36 = trunc i32 %35 to i16, !dbg !2203
  store i16 %36, i16* %32, align 2, !dbg !2203
  %37 = load %struct.__STDIO_FILE_STRUCT.273** %2, align 8, !dbg !2205
  %38 = getelementptr inbounds %struct.__STDIO_FILE_STRUCT.273* %37, i32 0, i32 4, !dbg !2205
  %39 = load i8** %38, align 8, !dbg !2205
  %40 = load %struct.__STDIO_FILE_STRUCT.273** %2, align 8, !dbg !2205
  %41 = getelementptr inbounds %struct.__STDIO_FILE_STRUCT.273* %40, i32 0, i32 3, !dbg !2205
  %42 = load i8** %41, align 8, !dbg !2205
  %43 = ptrtoint i8* %39 to i64, !dbg !2205
  %44 = ptrtoint i8* %42 to i64, !dbg !2205
  %45 = sub i64 %43, %44, !dbg !2205
  store i64 %45, i64* %stodo, align 8, !dbg !2205
  %46 = icmp ne i64 %45, 0, !dbg !2205
  br i1 %46, label %47, label %91, !dbg !2205

; <label>:47                                      ; preds = %30
  %48 = load i64* %stodo, align 8, !dbg !2207
  %49 = load i64* %todo, align 8, !dbg !2207
  %50 = icmp ugt i64 %48, %49, !dbg !2207
  br i1 %50, label %51, label %53, !dbg !2207

; <label>:51                                      ; preds = %47
  %52 = load i64* %todo, align 8, !dbg !2210
  store i64 %52, i64* %stodo, align 8, !dbg !2210
  br label %53, !dbg !2212

; <label>:53                                      ; preds = %51, %47
  %54 = load %struct.__STDIO_FILE_STRUCT.273** %2, align 8, !dbg !2213
  %55 = getelementptr inbounds %struct.__STDIO_FILE_STRUCT.273* %54, i32 0, i32 3, !dbg !2213
  %56 = load i8** %55, align 8, !dbg !2213
  store i8* %56, i8** %s, align 8, !dbg !2213
  br label %57, !dbg !2214

; <label>:57                                      ; preds = %70, %53
  %58 = load i8** %3, align 8, !dbg !2215
  %59 = load i8* %58, align 1, !dbg !2215
  %60 = load i8** %s, align 8, !dbg !2215
  store i8 %59, i8* %60, align 1, !dbg !2215
  %61 = zext i8 %59 to i32, !dbg !2215
  %62 = icmp eq i32 %61, 10, !dbg !2215
  br i1 %62, label %63, label %70, !dbg !2215

; <label>:63                                      ; preds = %57
  %64 = load %struct.__STDIO_FILE_STRUCT.273** %2, align 8, !dbg !2215
  %65 = getelementptr inbounds %struct.__STDIO_FILE_STRUCT.273* %64, i32 0, i32 0, !dbg !2215
  %66 = load i16* %65, align 2, !dbg !2215
  %67 = zext i16 %66 to i32, !dbg !2215
  %68 = and i32 %67, 256, !dbg !2215
  %69 = icmp ne i32 %68, 0, !dbg !2215
  br i1 %69, label %78, label %70, !dbg !2215

; <label>:70                                      ; preds = %63, %57
  %71 = load i8** %s, align 8, !dbg !2218
  %72 = getelementptr inbounds i8* %71, i32 1, !dbg !2218
  store i8* %72, i8** %s, align 8, !dbg !2218
  %73 = load i8** %3, align 8, !dbg !2219
  %74 = getelementptr inbounds i8* %73, i32 1, !dbg !2219
  store i8* %74, i8** %3, align 8, !dbg !2219
  %75 = load i64* %stodo, align 8, !dbg !2220
  %76 = add nsw i64 %75, -1, !dbg !2220
  store i64 %76, i64* %stodo, align 8, !dbg !2220
  %77 = icmp ne i64 %76, 0, !dbg !2220
  br i1 %77, label %57, label %78, !dbg !2220

; <label>:78                                      ; preds = %63, %70
  %79 = load i8** %s, align 8, !dbg !2221
  %80 = load %struct.__STDIO_FILE_STRUCT.273** %2, align 8, !dbg !2221
  %81 = getelementptr inbounds %struct.__STDIO_FILE_STRUCT.273* %80, i32 0, i32 5, !dbg !2221
  store i8* %79, i8** %81, align 8, !dbg !2221
  %82 = load i8** %s, align 8, !dbg !2222
  %83 = load %struct.__STDIO_FILE_STRUCT.273** %2, align 8, !dbg !2222
  %84 = getelementptr inbounds %struct.__STDIO_FILE_STRUCT.273* %83, i32 0, i32 3, !dbg !2222
  %85 = load i8** %84, align 8, !dbg !2222
  %86 = ptrtoint i8* %82 to i64, !dbg !2222
  %87 = ptrtoint i8* %85 to i64, !dbg !2222
  %88 = sub i64 %86, %87, !dbg !2222
  %89 = load i64* %todo, align 8, !dbg !2222
  %90 = sub i64 %89, %88, !dbg !2222
  store i64 %90, i64* %todo, align 8, !dbg !2222
  br label %91, !dbg !2223

; <label>:91                                      ; preds = %78, %30
  %92 = load i64* %4, align 8, !dbg !2224
  %93 = load i64* %todo, align 8, !dbg !2224
  %94 = sub i64 %92, %93, !dbg !2224
  store i64 %94, i64* %1, !dbg !2224
  br label %95, !dbg !2224

; <label>:95                                      ; preds = %91, %9
  %96 = load i64* %1, !dbg !2225
  ret i64 %96, !dbg !2225
}

declare i64 @write(i32, i8*, i64) #0

; Function Attrs: nounwind uwtable
define i8* @mempcpy(i8* noalias %s1, i8* noalias %s2, i64 %n) #4 {
  %1 = alloca i8*, align 8
  %2 = alloca i8*, align 8
  %3 = alloca i64, align 8
  %r1 = alloca i8*, align 8
  %r2 = alloca i8*, align 8
  store i8* %s1, i8** %1, align 8
  store i8* %s2, i8** %2, align 8
  store i64 %n, i64* %3, align 8
  %4 = load i8** %1, align 8, !dbg !2226
  store i8* %4, i8** %r1, align 8, !dbg !2226
  %5 = load i8** %2, align 8, !dbg !2227
  store i8* %5, i8** %r2, align 8, !dbg !2227
  br label %6, !dbg !2228

; <label>:6                                       ; preds = %9, %0
  %7 = load i64* %3, align 8, !dbg !2228
  %8 = icmp ne i64 %7, 0, !dbg !2228
  br i1 %8, label %9, label %17, !dbg !2228

; <label>:9                                       ; preds = %6
  %10 = load i8** %r2, align 8, !dbg !2229
  %11 = getelementptr inbounds i8* %10, i32 1, !dbg !2229
  store i8* %11, i8** %r2, align 8, !dbg !2229
  %12 = load i8* %10, align 1, !dbg !2229
  %13 = load i8** %r1, align 8, !dbg !2229
  %14 = getelementptr inbounds i8* %13, i32 1, !dbg !2229
  store i8* %14, i8** %r1, align 8, !dbg !2229
  store i8 %12, i8* %13, align 1, !dbg !2229
  %15 = load i64* %3, align 8, !dbg !2231
  %16 = add i64 %15, -1, !dbg !2231
  store i64 %16, i64* %3, align 8, !dbg !2231
  br label %6, !dbg !2232

; <label>:17                                      ; preds = %6
  %18 = load i8** %r1, align 8, !dbg !2233
  ret i8* %18, !dbg !2233
}

define i32 @main(i32, i8**) {
entry:
  call void @klee.ctor_stub()
  call void @__uClibc_main(i32 (i32, i8**, i8**)* bitcast (i32 ()* @__user_main to i32 (i32, i8**, i8**)*), i32 %0, i8** %1, void ()* null, void ()* null, void ()* null, i8* null)
  unreachable
}

; Function Attrs: nounwind uwtable
define void @klee_div_zero_check(i64 %z) #15 {
  %1 = icmp eq i64 %z, 0, !dbg !2234
  br i1 %1, label %2, label %3, !dbg !2234

; <label>:2                                       ; preds = %0
  tail call void @klee_report_error(i8* getelementptr inbounds ([60 x i8]* @.str41, i64 0, i64 0), i32 14, i8* getelementptr inbounds ([15 x i8]* @.str142, i64 0, i64 0), i8* getelementptr inbounds ([8 x i8]* @.str243, i64 0, i64 0)) #24, !dbg !2236
  unreachable, !dbg !2236

; <label>:3                                       ; preds = %0
  ret void, !dbg !2237
}

; Function Attrs: noreturn
declare void @klee_report_error(i8*, i32, i8*, i8*) #16

; Function Attrs: nounwind readnone
declare void @llvm.dbg.value(metadata, i64, metadata) #3

; Function Attrs: nounwind uwtable
define i32 @klee_int(i8* %name) #15 {
  %x = alloca i32, align 4
  %1 = bitcast i32* %x to i8*, !dbg !2238
  call void @klee_make_symbolic(i8* %1, i64 4, i8* %name) #21, !dbg !2238
  %2 = load i32* %x, align 4, !dbg !2239, !tbaa !2240
  ret i32 %2, !dbg !2239
}

; Function Attrs: nounwind uwtable
define void @klee_overshift_check(i64 %bitWidth, i64 %shift) #15 {
  %1 = icmp ult i64 %shift, %bitWidth, !dbg !2244
  br i1 %1, label %3, label %2, !dbg !2244

; <label>:2                                       ; preds = %0
  tail call void @klee_report_error(i8* getelementptr inbounds ([8 x i8]* @.str344, i64 0, i64 0), i32 0, i8* getelementptr inbounds ([16 x i8]* @.str14, i64 0, i64 0), i8* getelementptr inbounds ([14 x i8]* @.str25, i64 0, i64 0)) #24, !dbg !2246
  unreachable, !dbg !2246

; <label>:3                                       ; preds = %0
  ret void, !dbg !2248
}

; Function Attrs: nounwind uwtable
define i32 @klee_range(i32 %start, i32 %end, i8* %name) #15 {
  %x = alloca i32, align 4
  %1 = icmp slt i32 %start, %end, !dbg !2249
  br i1 %1, label %3, label %2, !dbg !2249

; <label>:2                                       ; preds = %0
  call void @klee_report_error(i8* getelementptr inbounds ([51 x i8]* @.str645, i64 0, i64 0), i32 17, i8* getelementptr inbounds ([14 x i8]* @.str17, i64 0, i64 0), i8* getelementptr inbounds ([5 x i8]* @.str28, i64 0, i64 0)) #24, !dbg !2251
  unreachable, !dbg !2251

; <label>:3                                       ; preds = %0
  %4 = add nsw i32 %start, 1, !dbg !2252
  %5 = icmp eq i32 %4, %end, !dbg !2252
  br i1 %5, label %21, label %6, !dbg !2252

; <label>:6                                       ; preds = %3
  %7 = bitcast i32* %x to i8*, !dbg !2254
  call void @klee_make_symbolic(i8* %7, i64 4, i8* %name) #21, !dbg !2254
  %8 = icmp eq i32 %start, 0, !dbg !2256
  %9 = load i32* %x, align 4, !dbg !2258, !tbaa !2240
  br i1 %8, label %10, label %13, !dbg !2256

; <label>:10                                      ; preds = %6
  %11 = icmp ult i32 %9, %end, !dbg !2258
  %12 = zext i1 %11 to i64, !dbg !2258
  call void @klee_assume(i64 %12) #21, !dbg !2258
  br label %19, !dbg !2260

; <label>:13                                      ; preds = %6
  %14 = icmp sge i32 %9, %start, !dbg !2261
  %15 = zext i1 %14 to i64, !dbg !2261
  call void @klee_assume(i64 %15) #21, !dbg !2261
  %16 = load i32* %x, align 4, !dbg !2263, !tbaa !2240
  %17 = icmp slt i32 %16, %end, !dbg !2263
  %18 = zext i1 %17 to i64, !dbg !2263
  call void @klee_assume(i64 %18) #21, !dbg !2263
  br label %19

; <label>:19                                      ; preds = %13, %10
  %20 = load i32* %x, align 4, !dbg !2264, !tbaa !2240
  br label %21, !dbg !2264

; <label>:21                                      ; preds = %19, %3
  %.0 = phi i32 [ %20, %19 ], [ %start, %3 ]
  ret i32 %.0, !dbg !2265
}

declare void @klee_assume(i64) #17

; Function Attrs: nounwind uwtable
define weak i8* @memmove(i8* %dst, i8* %src, i64 %count) #15 {
  %1 = icmp eq i8* %src, %dst, !dbg !2266
  br i1 %1, label %.loopexit, label %2, !dbg !2266

; <label>:2                                       ; preds = %0
  %3 = icmp ugt i8* %src, %dst, !dbg !2268
  br i1 %3, label %.preheader, label %18, !dbg !2268

.preheader:                                       ; preds = %2
  %4 = icmp eq i64 %count, 0, !dbg !2270
  br i1 %4, label %.loopexit, label %.lr.ph.preheader, !dbg !2270

.lr.ph.preheader:                                 ; preds = %.preheader
  %n.vec = and i64 %count, -32
  %cmp.zero = icmp eq i64 %n.vec, 0
  %5 = add i64 %count, -1
  br i1 %cmp.zero, label %middle.block, label %vector.memcheck

vector.memcheck:                                  ; preds = %.lr.ph.preheader
  %scevgep11 = getelementptr i8* %src, i64 %5
  %scevgep = getelementptr i8* %dst, i64 %5
  %bound1 = icmp uge i8* %scevgep, %src
  %bound0 = icmp uge i8* %scevgep11, %dst
  %memcheck.conflict = and i1 %bound0, %bound1
  %ptr.ind.end = getelementptr i8* %src, i64 %n.vec
  %ptr.ind.end13 = getelementptr i8* %dst, i64 %n.vec
  %rev.ind.end = sub i64 %count, %n.vec
  br i1 %memcheck.conflict, label %middle.block, label %vector.body

vector.body:                                      ; preds = %vector.body, %vector.memcheck
  %index = phi i64 [ %index.next, %vector.body ], [ 0, %vector.memcheck ]
  %next.gep = getelementptr i8* %src, i64 %index
  %next.gep110 = getelementptr i8* %dst, i64 %index
  %6 = bitcast i8* %next.gep to <16 x i8>*, !dbg !2270
  %wide.load = load <16 x i8>* %6, align 1, !dbg !2270
  %next.gep.sum586 = or i64 %index, 16, !dbg !2270
  %7 = getelementptr i8* %src, i64 %next.gep.sum586, !dbg !2270
  %8 = bitcast i8* %7 to <16 x i8>*, !dbg !2270
  %wide.load207 = load <16 x i8>* %8, align 1, !dbg !2270
  %9 = bitcast i8* %next.gep110 to <16 x i8>*, !dbg !2270
  store <16 x i8> %wide.load, <16 x i8>* %9, align 1, !dbg !2270
  %next.gep110.sum603 = or i64 %index, 16, !dbg !2270
  %10 = getelementptr i8* %dst, i64 %next.gep110.sum603, !dbg !2270
  %11 = bitcast i8* %10 to <16 x i8>*, !dbg !2270
  store <16 x i8> %wide.load207, <16 x i8>* %11, align 1, !dbg !2270
  %index.next = add i64 %index, 32
  %12 = icmp eq i64 %index.next, %n.vec
  br i1 %12, label %middle.block, label %vector.body, !llvm.loop !2272

middle.block:                                     ; preds = %vector.body, %vector.memcheck, %.lr.ph.preheader
  %resume.val = phi i8* [ %src, %.lr.ph.preheader ], [ %src, %vector.memcheck ], [ %ptr.ind.end, %vector.body ]
  %resume.val12 = phi i8* [ %dst, %.lr.ph.preheader ], [ %dst, %vector.memcheck ], [ %ptr.ind.end13, %vector.body ]
  %resume.val14 = phi i64 [ %count, %.lr.ph.preheader ], [ %count, %vector.memcheck ], [ %rev.ind.end, %vector.body ]
  %new.indc.resume.val = phi i64 [ 0, %.lr.ph.preheader ], [ 0, %vector.memcheck ], [ %n.vec, %vector.body ]
  %cmp.n = icmp eq i64 %new.indc.resume.val, %count
  br i1 %cmp.n, label %.loopexit, label %.lr.ph

.lr.ph:                                           ; preds = %.lr.ph, %middle.block
  %b.04 = phi i8* [ %14, %.lr.ph ], [ %resume.val, %middle.block ]
  %a.03 = phi i8* [ %16, %.lr.ph ], [ %resume.val12, %middle.block ]
  %.02 = phi i64 [ %13, %.lr.ph ], [ %resume.val14, %middle.block ]
  %13 = add i64 %.02, -1, !dbg !2270
  %14 = getelementptr inbounds i8* %b.04, i64 1, !dbg !2270
  %15 = load i8* %b.04, align 1, !dbg !2270, !tbaa !2275
  %16 = getelementptr inbounds i8* %a.03, i64 1, !dbg !2270
  store i8 %15, i8* %a.03, align 1, !dbg !2270, !tbaa !2275
  %17 = icmp eq i64 %13, 0, !dbg !2270
  br i1 %17, label %.loopexit, label %.lr.ph, !dbg !2270, !llvm.loop !2276

; <label>:18                                      ; preds = %2
  %19 = add i64 %count, -1, !dbg !2277
  %20 = icmp eq i64 %count, 0, !dbg !2279
  br i1 %20, label %.loopexit, label %.lr.ph9, !dbg !2279

.lr.ph9:                                          ; preds = %18
  %21 = getelementptr inbounds i8* %src, i64 %19, !dbg !2280
  %22 = getelementptr inbounds i8* %dst, i64 %19, !dbg !2277
  %n.vec215 = and i64 %count, -32
  %cmp.zero217 = icmp eq i64 %n.vec215, 0
  %23 = add i64 %count, -1
  br i1 %cmp.zero217, label %middle.block210, label %vector.memcheck224

vector.memcheck224:                               ; preds = %.lr.ph9
  %scevgep219 = getelementptr i8* %src, i64 %23
  %scevgep218 = getelementptr i8* %dst, i64 %23
  %bound1221 = icmp ule i8* %scevgep219, %dst
  %bound0220 = icmp ule i8* %scevgep218, %src
  %memcheck.conflict223 = and i1 %bound0220, %bound1221
  %.sum = sub i64 %19, %n.vec215
  %rev.ptr.ind.end = getelementptr i8* %src, i64 %.sum
  %.sum439 = sub i64 %19, %n.vec215
  %rev.ptr.ind.end229 = getelementptr i8* %dst, i64 %.sum439
  %rev.ind.end231 = sub i64 %count, %n.vec215
  br i1 %memcheck.conflict223, label %middle.block210, label %vector.body209

vector.body209:                                   ; preds = %vector.body209, %vector.memcheck224
  %index212 = phi i64 [ %index.next234, %vector.body209 ], [ 0, %vector.memcheck224 ]
  %.sum440 = sub i64 %19, %index212
  %.sum472 = sub i64 %19, %index212
  %next.gep236.sum = add i64 %.sum440, -15, !dbg !2279
  %24 = getelementptr i8* %src, i64 %next.gep236.sum, !dbg !2279
  %25 = bitcast i8* %24 to <16 x i8>*, !dbg !2279
  %wide.load434 = load <16 x i8>* %25, align 1, !dbg !2279
  %reverse = shufflevector <16 x i8> %wide.load434, <16 x i8> undef, <16 x i32> <i32 15, i32 14, i32 13, i32 12, i32 11, i32 10, i32 9, i32 8, i32 7, i32 6, i32 5, i32 4, i32 3, i32 2, i32 1, i32 0>, !dbg !2279
  %.sum505 = add i64 %.sum440, -31, !dbg !2279
  %26 = getelementptr i8* %src, i64 %.sum505, !dbg !2279
  %27 = bitcast i8* %26 to <16 x i8>*, !dbg !2279
  %wide.load435 = load <16 x i8>* %27, align 1, !dbg !2279
  %reverse436 = shufflevector <16 x i8> %wide.load435, <16 x i8> undef, <16 x i32> <i32 15, i32 14, i32 13, i32 12, i32 11, i32 10, i32 9, i32 8, i32 7, i32 6, i32 5, i32 4, i32 3, i32 2, i32 1, i32 0>, !dbg !2279
  %reverse437 = shufflevector <16 x i8> %reverse, <16 x i8> undef, <16 x i32> <i32 15, i32 14, i32 13, i32 12, i32 11, i32 10, i32 9, i32 8, i32 7, i32 6, i32 5, i32 4, i32 3, i32 2, i32 1, i32 0>, !dbg !2279
  %next.gep333.sum = add i64 %.sum472, -15, !dbg !2279
  %28 = getelementptr i8* %dst, i64 %next.gep333.sum, !dbg !2279
  %29 = bitcast i8* %28 to <16 x i8>*, !dbg !2279
  store <16 x i8> %reverse437, <16 x i8>* %29, align 1, !dbg !2279
  %reverse438 = shufflevector <16 x i8> %reverse436, <16 x i8> undef, <16 x i32> <i32 15, i32 14, i32 13, i32 12, i32 11, i32 10, i32 9, i32 8, i32 7, i32 6, i32 5, i32 4, i32 3, i32 2, i32 1, i32 0>, !dbg !2279
  %.sum507 = add i64 %.sum472, -31, !dbg !2279
  %30 = getelementptr i8* %dst, i64 %.sum507, !dbg !2279
  %31 = bitcast i8* %30 to <16 x i8>*, !dbg !2279
  store <16 x i8> %reverse438, <16 x i8>* %31, align 1, !dbg !2279
  %index.next234 = add i64 %index212, 32
  %32 = icmp eq i64 %index.next234, %n.vec215
  br i1 %32, label %middle.block210, label %vector.body209, !llvm.loop !2281

middle.block210:                                  ; preds = %vector.body209, %vector.memcheck224, %.lr.ph9
  %resume.val225 = phi i8* [ %21, %.lr.ph9 ], [ %21, %vector.memcheck224 ], [ %rev.ptr.ind.end, %vector.body209 ]
  %resume.val227 = phi i8* [ %22, %.lr.ph9 ], [ %22, %vector.memcheck224 ], [ %rev.ptr.ind.end229, %vector.body209 ]
  %resume.val230 = phi i64 [ %count, %.lr.ph9 ], [ %count, %vector.memcheck224 ], [ %rev.ind.end231, %vector.body209 ]
  %new.indc.resume.val232 = phi i64 [ 0, %.lr.ph9 ], [ 0, %vector.memcheck224 ], [ %n.vec215, %vector.body209 ]
  %cmp.n233 = icmp eq i64 %new.indc.resume.val232, %count
  br i1 %cmp.n233, label %.loopexit, label %scalar.ph211

scalar.ph211:                                     ; preds = %scalar.ph211, %middle.block210
  %b.18 = phi i8* [ %34, %scalar.ph211 ], [ %resume.val225, %middle.block210 ]
  %a.17 = phi i8* [ %36, %scalar.ph211 ], [ %resume.val227, %middle.block210 ]
  %.16 = phi i64 [ %33, %scalar.ph211 ], [ %resume.val230, %middle.block210 ]
  %33 = add i64 %.16, -1, !dbg !2279
  %34 = getelementptr inbounds i8* %b.18, i64 -1, !dbg !2279
  %35 = load i8* %b.18, align 1, !dbg !2279, !tbaa !2275
  %36 = getelementptr inbounds i8* %a.17, i64 -1, !dbg !2279
  store i8 %35, i8* %a.17, align 1, !dbg !2279, !tbaa !2275
  %37 = icmp eq i64 %33, 0, !dbg !2279
  br i1 %37, label %.loopexit, label %scalar.ph211, !dbg !2279, !llvm.loop !2282

.loopexit:                                        ; preds = %scalar.ph211, %middle.block210, %18, %.lr.ph, %middle.block, %.preheader, %0
  ret i8* %dst, !dbg !2283
}

define internal void @klee.ctor_stub() {
entry:
  call void @_GLOBAL__I_a()
  ret void
}

attributes #0 = { "less-precise-fpmad"="false" "no-frame-pointer-elim"="true" "no-frame-pointer-elim-non-leaf" "no-infs-fp-math"="false" "no-nans-fp-math"="false" "stack-protector-buffer-size"="8" "unsafe-fp-math"="false" "use-soft-float"="false" }
attributes #1 = { nounwind "less-precise-fpmad"="false" "no-frame-pointer-elim"="true" "no-frame-pointer-elim-non-leaf" "no-infs-fp-math"="false" "no-nans-fp-math"="false" "stack-protector-buffer-size"="8" "unsafe-fp-math"="false" "use-soft-float"="false
attributes #2 = { uwtable "less-precise-fpmad"="false" "no-frame-pointer-elim"="true" "no-frame-pointer-elim-non-leaf" "no-infs-fp-math"="false" "no-nans-fp-math"="false" "stack-protector-buffer-size"="8" "unsafe-fp-math"="false" "use-soft-float"="false"
attributes #3 = { nounwind readnone }
attributes #4 = { nounwind uwtable "less-precise-fpmad"="false" "no-frame-pointer-elim"="true" "no-frame-pointer-elim-non-leaf" "no-infs-fp-math"="false" "no-nans-fp-math"="false" "stack-protector-buffer-size"="8" "unsafe-fp-math"="false" "use-soft-float
attributes #5 = { inlinehint nounwind uwtable "less-precise-fpmad"="false" "no-frame-pointer-elim"="true" "no-frame-pointer-elim-non-leaf" "no-infs-fp-math"="false" "no-nans-fp-math"="false" "stack-protector-buffer-size"="8" "unsafe-fp-math"="false" "use
attributes #6 = { inlinehint uwtable "less-precise-fpmad"="false" "no-frame-pointer-elim"="true" "no-frame-pointer-elim-non-leaf" "no-infs-fp-math"="false" "no-nans-fp-math"="false" "stack-protector-buffer-size"="8" "unsafe-fp-math"="false" "use-soft-flo
attributes #7 = { noinline noreturn nounwind }
attributes #8 = { nobuiltin nounwind "less-precise-fpmad"="false" "no-frame-pointer-elim"="true" "no-frame-pointer-elim-non-leaf" "no-infs-fp-math"="false" "no-nans-fp-math"="false" "stack-protector-buffer-size"="8" "unsafe-fp-math"="false" "use-soft-flo
attributes #9 = { nounwind }
attributes #10 = { noreturn "less-precise-fpmad"="false" "no-frame-pointer-elim"="true" "no-frame-pointer-elim-non-leaf" "no-infs-fp-math"="false" "no-nans-fp-math"="false" "stack-protector-buffer-size"="8" "unsafe-fp-math"="false" "use-soft-float"="fals
attributes #11 = { nobuiltin "less-precise-fpmad"="false" "no-frame-pointer-elim"="true" "no-frame-pointer-elim-non-leaf" "no-infs-fp-math"="false" "no-nans-fp-math"="false" "stack-protector-buffer-size"="8" "unsafe-fp-math"="false" "use-soft-float"="fal
attributes #12 = { noreturn nounwind uwtable "less-precise-fpmad"="false" "no-frame-pointer-elim"="true" "no-frame-pointer-elim-non-leaf" "no-infs-fp-math"="false" "no-nans-fp-math"="false" "stack-protector-buffer-size"="8" "unsafe-fp-math"="false" "use-
attributes #13 = { noreturn nounwind "less-precise-fpmad"="false" "no-frame-pointer-elim"="true" "no-frame-pointer-elim-non-leaf" "no-infs-fp-math"="false" "no-nans-fp-math"="false" "stack-protector-buffer-size"="8" "unsafe-fp-math"="false" "use-soft-flo
attributes #14 = { nounwind readnone uwtable "less-precise-fpmad"="false" "no-frame-pointer-elim"="true" "no-frame-pointer-elim-non-leaf" "no-infs-fp-math"="false" "no-nans-fp-math"="false" "stack-protector-buffer-size"="8" "unsafe-fp-math"="false" "use-
attributes #15 = { nounwind uwtable "less-precise-fpmad"="false" "no-frame-pointer-elim"="false" "no-infs-fp-math"="false" "no-nans-fp-math"="false" "stack-protector-buffer-size"="8" "unsafe-fp-math"="false" "use-soft-float"="false" }
attributes #16 = { noreturn "less-precise-fpmad"="false" "no-frame-pointer-elim"="false" "no-infs-fp-math"="false" "no-nans-fp-math"="false" "stack-protector-buffer-size"="8" "unsafe-fp-math"="false" "use-soft-float"="false" }
attributes #17 = { "less-precise-fpmad"="false" "no-frame-pointer-elim"="false" "no-infs-fp-math"="false" "no-nans-fp-math"="false" "stack-protector-buffer-size"="8" "unsafe-fp-math"="false" "use-soft-float"="false" }
attributes #18 = { noreturn nounwind }
attributes #19 = { noreturn }
attributes #20 = { nobuiltin }
attributes #21 = { nobuiltin nounwind }
attributes #22 = { nobuiltin noreturn }
attributes #23 = { nobuiltin nounwind readnone }
attributes #24 = { nobuiltin noreturn nounwind }

!llvm.dbg.cu = !{!0, !1379, !1398, !1433, !1440, !1474, !1480, !1488, !1493, !1542, !1573, !1583, !1591, !1598, !1623, !1655, !1663, !1673, !1683, !1693, !1705, !1719, !1733, !1747}
!llvm.module.flags = !{!1762, !1763}
!llvm.ident = !{!1764, !1764, !1764, !1764, !1764, !1764, !1764, !1764, !1764, !1764, !1764, !1764, !1764, !1764, !1764, !1764, !1764, !1764, !1764, !1764, !1764, !1764, !1764, !1764}

!0 = metadata !{i32 786449, metadata !1, i32 4, metadata !"Ubuntu clang version 3.4-1ubuntu3 (tags/RELEASE_34/final) (based on LLVM 3.4)", i1 false, metadata !"", i32 0, metadata !2, metadata !17, metadata !1255, metadata !1371, metadata !1373, metadata 
!1 = metadata !{metadata !"commission.cpp", metadata !"/home/klee/ST/commission"}
!2 = metadata !{metadata !3}
!3 = metadata !{i32 786436, metadata !4, metadata !5, metadata !"_Ios_Openmode", i32 105, i64 32, i64 32, i32 0, i32 0, null, metadata !7, i32 0, null, null, metadata !"_ZTSSt13_Ios_Openmode"} ; [ DW_TAG_enumeration_type ] [_Ios_Openmode] [line 105, size
!4 = metadata !{metadata !"/usr/bin/../lib/gcc/x86_64-linux-gnu/4.8/../../../../include/c++/4.8/bits/ios_base.h", metadata !"/home/klee/ST/commission"}
!5 = metadata !{i32 786489, metadata !6, null, metadata !"std", i32 184} ; [ DW_TAG_namespace ] [std] [line 184]
!6 = metadata !{metadata !"/usr/bin/../lib/gcc/x86_64-linux-gnu/4.8/../../../../include/x86_64-linux-gnu/c++/4.8/bits/c++config.h", metadata !"/home/klee/ST/commission"}
!7 = metadata !{metadata !8, metadata !9, metadata !10, metadata !11, metadata !12, metadata !13, metadata !14, metadata !15, metadata !16}
!8 = metadata !{i32 786472, metadata !"_S_app", i64 1} ; [ DW_TAG_enumerator ] [_S_app :: 1]
!9 = metadata !{i32 786472, metadata !"_S_ate", i64 2} ; [ DW_TAG_enumerator ] [_S_ate :: 2]
!10 = metadata !{i32 786472, metadata !"_S_bin", i64 4} ; [ DW_TAG_enumerator ] [_S_bin :: 4]
!11 = metadata !{i32 786472, metadata !"_S_in", i64 8} ; [ DW_TAG_enumerator ] [_S_in :: 8]
!12 = metadata !{i32 786472, metadata !"_S_out", i64 16} ; [ DW_TAG_enumerator ] [_S_out :: 16]
!13 = metadata !{i32 786472, metadata !"_S_trunc", i64 32} ; [ DW_TAG_enumerator ] [_S_trunc :: 32]
!14 = metadata !{i32 786472, metadata !"_S_ios_openmode_end", i64 65536} ; [ DW_TAG_enumerator ] [_S_ios_openmode_end :: 65536]
!15 = metadata !{i32 786472, metadata !"_S_ios_openmode_max", i64 2147483647} ; [ DW_TAG_enumerator ] [_S_ios_openmode_max :: 2147483647]
!16 = metadata !{i32 786472, metadata !"_S_ios_openmode_min", i64 -2147483648} ; [ DW_TAG_enumerator ] [_S_ios_openmode_min :: -2147483648]
!17 = metadata !{metadata !18, metadata !19, metadata !32, metadata !247, metadata !634, metadata !684, metadata !698, metadata !738, metadata !746, metadata !787, metadata !844, metadata !847, metadata !351, metadata !900, metadata !901, metadata !902, 
!18 = metadata !{i32 786434, metadata !4, metadata !5, metadata !"ios_base", i32 205, i64 0, i64 0, i32 0, i32 4, null, null, i32 0, null, null, metadata !"_ZTSSt8ios_base"} ; [ DW_TAG_class_type ] [ios_base] [line 205, size 0, align 0, offset 0] [decl] 
!19 = metadata !{i32 786434, metadata !4, metadata !"_ZTSSt8ios_base", metadata !"Init", i32 539, i64 8, i64 8, i32 0, i32 0, null, metadata !20, i32 0, null, null, metadata !"_ZTSNSt8ios_base4InitE"} ; [ DW_TAG_class_type ] [Init] [line 539, size 8, ali
!20 = metadata !{metadata !21, metadata !24, metadata !26, metadata !31}
!21 = metadata !{i32 786445, metadata !4, metadata !"_ZTSNSt8ios_base4InitE", metadata !"_S_refcount", i32 547, i64 0, i64 0, i64 0, i32 4097, metadata !22, null} ; [ DW_TAG_member ] [_S_refcount] [line 547, size 0, align 0, offset 0] [private] [static] 
!22 = metadata !{i32 786454, metadata !4, null, metadata !"_Atomic_word", i32 32, i64 0, i64 0, i64 0, i32 0, metadata !23} ; [ DW_TAG_typedef ] [_Atomic_word] [line 32, size 0, align 0, offset 0] [from int]
!23 = metadata !{i32 786468, null, null, metadata !"int", i32 0, i64 32, i64 32, i64 0, i32 0, i32 5} ; [ DW_TAG_base_type ] [int] [line 0, size 32, align 32, offset 0, enc DW_ATE_signed]
!24 = metadata !{i32 786445, metadata !4, metadata !"_ZTSNSt8ios_base4InitE", metadata !"_S_synced_with_stdio", i32 548, i64 0, i64 0, i64 0, i32 4097, metadata !25, null} ; [ DW_TAG_member ] [_S_synced_with_stdio] [line 548, size 0, align 0, offset 0] [
!25 = metadata !{i32 786468, null, null, metadata !"bool", i32 0, i64 8, i64 8, i64 0, i32 0, i32 2} ; [ DW_TAG_base_type ] [bool] [line 0, size 8, align 8, offset 0, enc DW_ATE_boolean]
!26 = metadata !{i32 786478, metadata !4, metadata !"_ZTSNSt8ios_base4InitE", metadata !"Init", metadata !"Init", metadata !"", i32 543, metadata !27, i1 false, i1 false, i32 0, i32 0, null, i32 256, i1 false, null, null, i32 0, metadata !30, i32 543} ; 
!27 = metadata !{i32 786453, i32 0, null, metadata !"", i32 0, i64 0, i64 0, i64 0, i32 0, null, metadata !28, i32 0, null, null, null} ; [ DW_TAG_subroutine_type ] [line 0, size 0, align 0, offset 0] [from ]
!28 = metadata !{null, metadata !29}
!29 = metadata !{i32 786447, null, null, metadata !"", i32 0, i64 64, i64 64, i64 0, i32 1088, metadata !"_ZTSNSt8ios_base4InitE"} ; [ DW_TAG_pointer_type ] [line 0, size 64, align 64, offset 0] [artificial] [from _ZTSNSt8ios_base4InitE]
!30 = metadata !{i32 786468}
!31 = metadata !{i32 786478, metadata !4, metadata !"_ZTSNSt8ios_base4InitE", metadata !"~Init", metadata !"~Init", metadata !"", i32 544, metadata !27, i1 false, i1 false, i32 0, i32 0, null, i32 256, i1 false, null, null, i32 0, metadata !30, i32 544} 
!32 = metadata !{i32 786434, metadata !33, metadata !5, metadata !"vector<std::basic_string<char>, std::allocator<std::basic_string<char> > >", i32 210, i64 192, i64 64, i32 0, i32 0, null, metadata !34, i32 0, null, metadata !244, metadata !"_ZTSSt6vect
!33 = metadata !{metadata !"/usr/bin/../lib/gcc/x86_64-linux-gnu/4.8/../../../../include/c++/4.8/bits/stl_vector.h", metadata !"/home/klee/ST/commission"}
!34 = metadata !{metadata !35, metadata !36, metadata !40, metadata !46, metadata !53, metadata !59, metadata !64, metadata !68, metadata !71, metadata !74, metadata !79, metadata !80, metadata !84, metadata !87, metadata !90, metadata !93, metadata !96,
!35 = metadata !{i32 786460, null, metadata !"_ZTSSt6vectorISsSaISsEE", null, i32 0, i64 0, i64 0, i64 0, i32 2, metadata !"_ZTSSt12_Vector_baseISsSaISsEE"} ; [ DW_TAG_inheritance ] [line 0, size 0, align 0, offset 0] [protected] [from _ZTSSt12_Vector_ba
!36 = metadata !{i32 786478, metadata !33, metadata !"_ZTSSt6vectorISsSaISsEE", metadata !"vector", metadata !"vector", metadata !"", i32 248, metadata !37, i1 false, i1 false, i32 0, i32 0, null, i32 256, i1 false, null, null, i32 0, metadata !30, i32 2
!37 = metadata !{i32 786453, i32 0, null, metadata !"", i32 0, i64 0, i64 0, i64 0, i32 0, null, metadata !38, i32 0, null, null, null} ; [ DW_TAG_subroutine_type ] [line 0, size 0, align 0, offset 0] [from ]
!38 = metadata !{null, metadata !39}
!39 = metadata !{i32 786447, null, null, metadata !"", i32 0, i64 64, i64 64, i64 0, i32 1088, metadata !"_ZTSSt6vectorISsSaISsEE"} ; [ DW_TAG_pointer_type ] [line 0, size 64, align 64, offset 0] [artificial] [from _ZTSSt6vectorISsSaISsEE]
!40 = metadata !{i32 786478, metadata !33, metadata !"_ZTSSt6vectorISsSaISsEE", metadata !"vector", metadata !"vector", metadata !"", i32 256, metadata !41, i1 false, i1 false, i32 0, i32 0, null, i32 384, i1 false, null, null, i32 0, metadata !30, i32 2
!41 = metadata !{i32 786453, i32 0, null, metadata !"", i32 0, i64 0, i64 0, i64 0, i32 0, null, metadata !42, i32 0, null, null, null} ; [ DW_TAG_subroutine_type ] [line 0, size 0, align 0, offset 0] [from ]
!42 = metadata !{null, metadata !39, metadata !43}
!43 = metadata !{i32 786448, null, null, null, i32 0, i64 0, i64 0, i64 0, i32 0, metadata !44} ; [ DW_TAG_reference_type ] [line 0, size 0, align 0, offset 0] [from ]
!44 = metadata !{i32 786470, null, null, metadata !"", i32 0, i64 0, i64 0, i64 0, i32 0, metadata !45} ; [ DW_TAG_const_type ] [line 0, size 0, align 0, offset 0] [from allocator_type]
!45 = metadata !{i32 786454, metadata !33, metadata !"_ZTSSt6vectorISsSaISsEE", metadata !"allocator_type", i32 234, i64 0, i64 0, i64 0, i32 0, metadata !"_ZTSSaISsE"} ; [ DW_TAG_typedef ] [allocator_type] [line 234, size 0, align 0, offset 0] [from _ZT
!46 = metadata !{i32 786478, metadata !33, metadata !"_ZTSSt6vectorISsSaISsEE", metadata !"vector", metadata !"vector", metadata !"", i32 269, metadata !47, i1 false, i1 false, i32 0, i32 0, null, i32 384, i1 false, null, null, i32 0, metadata !30, i32 2
!47 = metadata !{i32 786453, i32 0, null, metadata !"", i32 0, i64 0, i64 0, i64 0, i32 0, null, metadata !48, i32 0, null, null, null} ; [ DW_TAG_subroutine_type ] [line 0, size 0, align 0, offset 0] [from ]
!48 = metadata !{null, metadata !39, metadata !49, metadata !43}
!49 = metadata !{i32 786454, metadata !33, null, metadata !"size_type", i32 232, i64 0, i64 0, i64 0, i32 0, metadata !50} ; [ DW_TAG_typedef ] [size_type] [line 232, size 0, align 0, offset 0] [from size_t]
!50 = metadata !{i32 786454, metadata !51, metadata !5, metadata !"size_t", i32 186, i64 0, i64 0, i64 0, i32 0, metadata !52} ; [ DW_TAG_typedef ] [size_t] [line 186, size 0, align 0, offset 0] [from long unsigned int]
!51 = metadata !{metadata !"/usr/bin/../lib/gcc/x86_64-linux-gnu/4.8/../../../../include/c++/4.8/bits/char_traits.h", metadata !"/home/klee/ST/commission"}
!52 = metadata !{i32 786468, null, null, metadata !"long unsigned int", i32 0, i64 64, i64 64, i64 0, i32 0, i32 7} ; [ DW_TAG_base_type ] [long unsigned int] [line 0, size 64, align 64, offset 0, enc DW_ATE_unsigned]
!53 = metadata !{i32 786478, metadata !33, metadata !"_ZTSSt6vectorISsSaISsEE", metadata !"vector", metadata !"vector", metadata !"", i32 281, metadata !54, i1 false, i1 false, i32 0, i32 0, null, i32 256, i1 false, null, null, i32 0, metadata !30, i32 2
!54 = metadata !{i32 786453, i32 0, null, metadata !"", i32 0, i64 0, i64 0, i64 0, i32 0, null, metadata !55, i32 0, null, null, null} ; [ DW_TAG_subroutine_type ] [line 0, size 0, align 0, offset 0] [from ]
!55 = metadata !{null, metadata !39, metadata !49, metadata !56, metadata !43}
!56 = metadata !{i32 786448, null, null, null, i32 0, i64 0, i64 0, i64 0, i32 0, metadata !57} ; [ DW_TAG_reference_type ] [line 0, size 0, align 0, offset 0] [from ]
!57 = metadata !{i32 786470, null, null, metadata !"", i32 0, i64 0, i64 0, i64 0, i32 0, metadata !58} ; [ DW_TAG_const_type ] [line 0, size 0, align 0, offset 0] [from value_type]
!58 = metadata !{i32 786454, metadata !33, metadata !"_ZTSSt6vectorISsSaISsEE", metadata !"value_type", i32 222, i64 0, i64 0, i64 0, i32 0, metadata !"_ZTSSs"} ; [ DW_TAG_typedef ] [value_type] [line 222, size 0, align 0, offset 0] [from _ZTSSs]
!59 = metadata !{i32 786478, metadata !33, metadata !"_ZTSSt6vectorISsSaISsEE", metadata !"vector", metadata !"vector", metadata !"", i32 310, metadata !60, i1 false, i1 false, i32 0, i32 0, null, i32 256, i1 false, null, null, i32 0, metadata !30, i32 3
!60 = metadata !{i32 786453, i32 0, null, metadata !"", i32 0, i64 0, i64 0, i64 0, i32 0, null, metadata !61, i32 0, null, null, null} ; [ DW_TAG_subroutine_type ] [line 0, size 0, align 0, offset 0] [from ]
!61 = metadata !{null, metadata !39, metadata !62}
!62 = metadata !{i32 786448, null, null, null, i32 0, i64 0, i64 0, i64 0, i32 0, metadata !63} ; [ DW_TAG_reference_type ] [line 0, size 0, align 0, offset 0] [from ]
!63 = metadata !{i32 786470, null, null, metadata !"", i32 0, i64 0, i64 0, i64 0, i32 0, metadata !"_ZTSSt6vectorISsSaISsEE"} ; [ DW_TAG_const_type ] [line 0, size 0, align 0, offset 0] [from _ZTSSt6vectorISsSaISsEE]
!64 = metadata !{i32 786478, metadata !33, metadata !"_ZTSSt6vectorISsSaISsEE", metadata !"vector", metadata !"vector", metadata !"", i32 327, metadata !65, i1 false, i1 false, i32 0, i32 0, null, i32 256, i1 false, null, null, i32 0, metadata !30, i32 3
!65 = metadata !{i32 786453, i32 0, null, metadata !"", i32 0, i64 0, i64 0, i64 0, i32 0, null, metadata !66, i32 0, null, null, null} ; [ DW_TAG_subroutine_type ] [line 0, size 0, align 0, offset 0] [from ]
!66 = metadata !{null, metadata !39, metadata !67}
!67 = metadata !{i32 786498, null, null, null, i32 0, i64 0, i64 0, i64 0, i32 0, metadata !"_ZTSSt6vectorISsSaISsEE"} ; [ DW_TAG_rvalue_reference_type ] [line 0, size 0, align 0, offset 0] [from _ZTSSt6vectorISsSaISsEE]
!68 = metadata !{i32 786478, metadata !33, metadata !"_ZTSSt6vectorISsSaISsEE", metadata !"vector", metadata !"vector", metadata !"", i32 331, metadata !69, i1 false, i1 false, i32 0, i32 0, null, i32 256, i1 false, null, null, i32 0, metadata !30, i32 3
!69 = metadata !{i32 786453, i32 0, null, metadata !"", i32 0, i64 0, i64 0, i64 0, i32 0, null, metadata !70, i32 0, null, null, null} ; [ DW_TAG_subroutine_type ] [line 0, size 0, align 0, offset 0] [from ]
!70 = metadata !{null, metadata !39, metadata !62, metadata !43}
!71 = metadata !{i32 786478, metadata !33, metadata !"_ZTSSt6vectorISsSaISsEE", metadata !"vector", metadata !"vector", metadata !"", i32 340, metadata !72, i1 false, i1 false, i32 0, i32 0, null, i32 256, i1 false, null, null, i32 0, metadata !30, i32 3
!72 = metadata !{i32 786453, i32 0, null, metadata !"", i32 0, i64 0, i64 0, i64 0, i32 0, null, metadata !73, i32 0, null, null, null} ; [ DW_TAG_subroutine_type ] [line 0, size 0, align 0, offset 0] [from ]
!73 = metadata !{null, metadata !39, metadata !67, metadata !43}
!74 = metadata !{i32 786478, metadata !33, metadata !"_ZTSSt6vectorISsSaISsEE", metadata !"vector", metadata !"vector", metadata !"", i32 364, metadata !75, i1 false, i1 false, i32 0, i32 0, null, i32 256, i1 false, null, null, i32 0, metadata !30, i32 3
!75 = metadata !{i32 786453, i32 0, null, metadata !"", i32 0, i64 0, i64 0, i64 0, i32 0, null, metadata !76, i32 0, null, null, null} ; [ DW_TAG_subroutine_type ] [line 0, size 0, align 0, offset 0] [from ]
!76 = metadata !{null, metadata !39, metadata !77, metadata !43}
!77 = metadata !{i32 786434, metadata !78, metadata !5, metadata !"initializer_list<std::basic_string<char> >", i32 47, i64 0, i64 0, i32 0, i32 4, null, null, i32 0, null, null, metadata !"_ZTSSt16initializer_listISsE"} ; [ DW_TAG_class_type ] [initiali
!78 = metadata !{metadata !"/usr/bin/../lib/gcc/x86_64-linux-gnu/4.8/../../../../include/c++/4.8/initializer_list", metadata !"/home/klee/ST/commission"}
!79 = metadata !{i32 786478, metadata !33, metadata !"_ZTSSt6vectorISsSaISsEE", metadata !"~vector", metadata !"~vector", metadata !"", i32 414, metadata !37, i1 false, i1 false, i32 0, i32 0, null, i32 256, i1 false, null, null, i32 0, metadata !30, i32
!80 = metadata !{i32 786478, metadata !33, metadata !"_ZTSSt6vectorISsSaISsEE", metadata !"operator=", metadata !"operator=", metadata !"_ZNSt6vectorISsSaISsEEaSERKS1_", i32 427, metadata !81, i1 false, i1 false, i32 0, i32 0, null, i32 256, i1 false, nu
!81 = metadata !{i32 786453, i32 0, null, metadata !"", i32 0, i64 0, i64 0, i64 0, i32 0, null, metadata !82, i32 0, null, null, null} ; [ DW_TAG_subroutine_type ] [line 0, size 0, align 0, offset 0] [from ]
!82 = metadata !{metadata !83, metadata !39, metadata !62}
!83 = metadata !{i32 786448, null, null, null, i32 0, i64 0, i64 0, i64 0, i32 0, metadata !"_ZTSSt6vectorISsSaISsEE"} ; [ DW_TAG_reference_type ] [line 0, size 0, align 0, offset 0] [from _ZTSSt6vectorISsSaISsEE]
!84 = metadata !{i32 786478, metadata !33, metadata !"_ZTSSt6vectorISsSaISsEE", metadata !"operator=", metadata !"operator=", metadata !"_ZNSt6vectorISsSaISsEEaSEOS1_", i32 439, metadata !85, i1 false, i1 false, i32 0, i32 0, null, i32 256, i1 false, nul
!85 = metadata !{i32 786453, i32 0, null, metadata !"", i32 0, i64 0, i64 0, i64 0, i32 0, null, metadata !86, i32 0, null, null, null} ; [ DW_TAG_subroutine_type ] [line 0, size 0, align 0, offset 0] [from ]
!86 = metadata !{metadata !83, metadata !39, metadata !67}
!87 = metadata !{i32 786478, metadata !33, metadata !"_ZTSSt6vectorISsSaISsEE", metadata !"operator=", metadata !"operator=", metadata !"_ZNSt6vectorISsSaISsEEaSESt16initializer_listISsE", i32 461, metadata !88, i1 false, i1 false, i32 0, i32 0, null, i3
!88 = metadata !{i32 786453, i32 0, null, metadata !"", i32 0, i64 0, i64 0, i64 0, i32 0, null, metadata !89, i32 0, null, null, null} ; [ DW_TAG_subroutine_type ] [line 0, size 0, align 0, offset 0] [from ]
!89 = metadata !{metadata !83, metadata !39, metadata !77}
!90 = metadata !{i32 786478, metadata !33, metadata !"_ZTSSt6vectorISsSaISsEE", metadata !"assign", metadata !"assign", metadata !"_ZNSt6vectorISsSaISsEE6assignEmRKSs", i32 479, metadata !91, i1 false, i1 false, i32 0, i32 0, null, i32 256, i1 false, nul
!91 = metadata !{i32 786453, i32 0, null, metadata !"", i32 0, i64 0, i64 0, i64 0, i32 0, null, metadata !92, i32 0, null, null, null} ; [ DW_TAG_subroutine_type ] [line 0, size 0, align 0, offset 0] [from ]
!92 = metadata !{null, metadata !39, metadata !49, metadata !56}
!93 = metadata !{i32 786478, metadata !33, metadata !"_ZTSSt6vectorISsSaISsEE", metadata !"assign", metadata !"assign", metadata !"_ZNSt6vectorISsSaISsEE6assignESt16initializer_listISsE", i32 524, metadata !94, i1 false, i1 false, i32 0, i32 0, null, i32
!94 = metadata !{i32 786453, i32 0, null, metadata !"", i32 0, i64 0, i64 0, i64 0, i32 0, null, metadata !95, i32 0, null, null, null} ; [ DW_TAG_subroutine_type ] [line 0, size 0, align 0, offset 0] [from ]
!95 = metadata !{null, metadata !39, metadata !77}
!96 = metadata !{i32 786478, metadata !33, metadata !"_ZTSSt6vectorISsSaISsEE", metadata !"begin", metadata !"begin", metadata !"_ZNSt6vectorISsSaISsEE5beginEv", i32 538, metadata !97, i1 false, i1 false, i32 0, i32 0, null, i32 256, i1 false, null, null
!97 = metadata !{i32 786453, i32 0, null, metadata !"", i32 0, i64 0, i64 0, i64 0, i32 0, null, metadata !98, i32 0, null, null, null} ; [ DW_TAG_subroutine_type ] [line 0, size 0, align 0, offset 0] [from ]
!98 = metadata !{metadata !99, metadata !39}
!99 = metadata !{i32 786454, metadata !33, metadata !"_ZTSSt6vectorISsSaISsEE", metadata !"iterator", i32 227, i64 0, i64 0, i64 0, i32 0, metadata !"_ZTSN9__gnu_cxx17__normal_iteratorIPSsSt6vectorISsSaISsEEEE"} ; [ DW_TAG_typedef ] [iterator] [line 227,
!100 = metadata !{i32 786478, metadata !33, metadata !"_ZTSSt6vectorISsSaISsEE", metadata !"begin", metadata !"begin", metadata !"_ZNKSt6vectorISsSaISsEE5beginEv", i32 547, metadata !101, i1 false, i1 false, i32 0, i32 0, null, i32 256, i1 false, null, n
!101 = metadata !{i32 786453, i32 0, null, metadata !"", i32 0, i64 0, i64 0, i64 0, i32 0, null, metadata !102, i32 0, null, null, null} ; [ DW_TAG_subroutine_type ] [line 0, size 0, align 0, offset 0] [from ]
!102 = metadata !{metadata !103, metadata !104}
!103 = metadata !{i32 786454, metadata !33, metadata !"_ZTSSt6vectorISsSaISsEE", metadata !"const_iterator", i32 229, i64 0, i64 0, i64 0, i32 0, metadata !"_ZTSN9__gnu_cxx17__normal_iteratorIPKSsSt6vectorISsSaISsEEEE"} ; [ DW_TAG_typedef ] [const_iterat
!104 = metadata !{i32 786447, null, null, metadata !"", i32 0, i64 64, i64 64, i64 0, i32 1088, metadata !63} ; [ DW_TAG_pointer_type ] [line 0, size 64, align 64, offset 0] [artificial] [from ]
!105 = metadata !{i32 786478, metadata !33, metadata !"_ZTSSt6vectorISsSaISsEE", metadata !"end", metadata !"end", metadata !"_ZNSt6vectorISsSaISsEE3endEv", i32 556, metadata !97, i1 false, i1 false, i32 0, i32 0, null, i32 256, i1 false, null, null, i32
!106 = metadata !{i32 786478, metadata !33, metadata !"_ZTSSt6vectorISsSaISsEE", metadata !"end", metadata !"end", metadata !"_ZNKSt6vectorISsSaISsEE3endEv", i32 565, metadata !101, i1 false, i1 false, i32 0, i32 0, null, i32 256, i1 false, null, null, i
!107 = metadata !{i32 786478, metadata !33, metadata !"_ZTSSt6vectorISsSaISsEE", metadata !"rbegin", metadata !"rbegin", metadata !"_ZNSt6vectorISsSaISsEE6rbeginEv", i32 574, metadata !108, i1 false, i1 false, i32 0, i32 0, null, i32 256, i1 false, null,
!108 = metadata !{i32 786453, i32 0, null, metadata !"", i32 0, i64 0, i64 0, i64 0, i32 0, null, metadata !109, i32 0, null, null, null} ; [ DW_TAG_subroutine_type ] [line 0, size 0, align 0, offset 0] [from ]
!109 = metadata !{metadata !110, metadata !39}
!110 = metadata !{i32 786454, metadata !33, metadata !"_ZTSSt6vectorISsSaISsEE", metadata !"reverse_iterator", i32 231, i64 0, i64 0, i64 0, i32 0, metadata !"_ZTSSt16reverse_iteratorIN9__gnu_cxx17__normal_iteratorIPSsSt6vectorISsSaISsEEEEE"} ; [ DW_TAG_
!111 = metadata !{i32 786478, metadata !33, metadata !"_ZTSSt6vectorISsSaISsEE", metadata !"rbegin", metadata !"rbegin", metadata !"_ZNKSt6vectorISsSaISsEE6rbeginEv", i32 583, metadata !112, i1 false, i1 false, i32 0, i32 0, null, i32 256, i1 false, null
!112 = metadata !{i32 786453, i32 0, null, metadata !"", i32 0, i64 0, i64 0, i64 0, i32 0, null, metadata !113, i32 0, null, null, null} ; [ DW_TAG_subroutine_type ] [line 0, size 0, align 0, offset 0] [from ]
!113 = metadata !{metadata !114, metadata !104}
!114 = metadata !{i32 786454, metadata !33, metadata !"_ZTSSt6vectorISsSaISsEE", metadata !"const_reverse_iterator", i32 230, i64 0, i64 0, i64 0, i32 0, metadata !"_ZTSSt16reverse_iteratorIN9__gnu_cxx17__normal_iteratorIPKSsSt6vectorISsSaISsEEEEE"} ; [ 
!115 = metadata !{i32 786478, metadata !33, metadata !"_ZTSSt6vectorISsSaISsEE", metadata !"rend", metadata !"rend", metadata !"_ZNSt6vectorISsSaISsEE4rendEv", i32 592, metadata !108, i1 false, i1 false, i32 0, i32 0, null, i32 256, i1 false, null, null,
!116 = metadata !{i32 786478, metadata !33, metadata !"_ZTSSt6vectorISsSaISsEE", metadata !"rend", metadata !"rend", metadata !"_ZNKSt6vectorISsSaISsEE4rendEv", i32 601, metadata !112, i1 false, i1 false, i32 0, i32 0, null, i32 256, i1 false, null, null
!117 = metadata !{i32 786478, metadata !33, metadata !"_ZTSSt6vectorISsSaISsEE", metadata !"cbegin", metadata !"cbegin", metadata !"_ZNKSt6vectorISsSaISsEE6cbeginEv", i32 611, metadata !101, i1 false, i1 false, i32 0, i32 0, null, i32 256, i1 false, null
!118 = metadata !{i32 786478, metadata !33, metadata !"_ZTSSt6vectorISsSaISsEE", metadata !"cend", metadata !"cend", metadata !"_ZNKSt6vectorISsSaISsEE4cendEv", i32 620, metadata !101, i1 false, i1 false, i32 0, i32 0, null, i32 256, i1 false, null, null
!119 = metadata !{i32 786478, metadata !33, metadata !"_ZTSSt6vectorISsSaISsEE", metadata !"crbegin", metadata !"crbegin", metadata !"_ZNKSt6vectorISsSaISsEE7crbeginEv", i32 629, metadata !112, i1 false, i1 false, i32 0, i32 0, null, i32 256, i1 false, n
!120 = metadata !{i32 786478, metadata !33, metadata !"_ZTSSt6vectorISsSaISsEE", metadata !"crend", metadata !"crend", metadata !"_ZNKSt6vectorISsSaISsEE5crendEv", i32 638, metadata !112, i1 false, i1 false, i32 0, i32 0, null, i32 256, i1 false, null, n
!121 = metadata !{i32 786478, metadata !33, metadata !"_ZTSSt6vectorISsSaISsEE", metadata !"size", metadata !"size", metadata !"_ZNKSt6vectorISsSaISsEE4sizeEv", i32 645, metadata !122, i1 false, i1 false, i32 0, i32 0, null, i32 256, i1 false, null, null
!122 = metadata !{i32 786453, i32 0, null, metadata !"", i32 0, i64 0, i64 0, i64 0, i32 0, null, metadata !123, i32 0, null, null, null} ; [ DW_TAG_subroutine_type ] [line 0, size 0, align 0, offset 0] [from ]
!123 = metadata !{metadata !49, metadata !104}
!124 = metadata !{i32 786478, metadata !33, metadata !"_ZTSSt6vectorISsSaISsEE", metadata !"max_size", metadata !"max_size", metadata !"_ZNKSt6vectorISsSaISsEE8max_sizeEv", i32 650, metadata !122, i1 false, i1 false, i32 0, i32 0, null, i32 256, i1 false
!125 = metadata !{i32 786478, metadata !33, metadata !"_ZTSSt6vectorISsSaISsEE", metadata !"resize", metadata !"resize", metadata !"_ZNSt6vectorISsSaISsEE6resizeEm", i32 664, metadata !126, i1 false, i1 false, i32 0, i32 0, null, i32 256, i1 false, null,
!126 = metadata !{i32 786453, i32 0, null, metadata !"", i32 0, i64 0, i64 0, i64 0, i32 0, null, metadata !127, i32 0, null, null, null} ; [ DW_TAG_subroutine_type ] [line 0, size 0, align 0, offset 0] [from ]
!127 = metadata !{null, metadata !39, metadata !49}
!128 = metadata !{i32 786478, metadata !33, metadata !"_ZTSSt6vectorISsSaISsEE", metadata !"resize", metadata !"resize", metadata !"_ZNSt6vectorISsSaISsEE6resizeEmRKSs", i32 684, metadata !91, i1 false, i1 false, i32 0, i32 0, null, i32 256, i1 false, nu
!129 = metadata !{i32 786478, metadata !33, metadata !"_ZTSSt6vectorISsSaISsEE", metadata !"shrink_to_fit", metadata !"shrink_to_fit", metadata !"_ZNSt6vectorISsSaISsEE13shrink_to_fitEv", i32 716, metadata !37, i1 false, i1 false, i32 0, i32 0, null, i32
!130 = metadata !{i32 786478, metadata !33, metadata !"_ZTSSt6vectorISsSaISsEE", metadata !"capacity", metadata !"capacity", metadata !"_ZNKSt6vectorISsSaISsEE8capacityEv", i32 725, metadata !122, i1 false, i1 false, i32 0, i32 0, null, i32 256, i1 false
!131 = metadata !{i32 786478, metadata !33, metadata !"_ZTSSt6vectorISsSaISsEE", metadata !"empty", metadata !"empty", metadata !"_ZNKSt6vectorISsSaISsEE5emptyEv", i32 734, metadata !132, i1 false, i1 false, i32 0, i32 0, null, i32 256, i1 false, null, n
!132 = metadata !{i32 786453, i32 0, null, metadata !"", i32 0, i64 0, i64 0, i64 0, i32 0, null, metadata !133, i32 0, null, null, null} ; [ DW_TAG_subroutine_type ] [line 0, size 0, align 0, offset 0] [from ]
!133 = metadata !{metadata !25, metadata !104}
!134 = metadata !{i32 786478, metadata !33, metadata !"_ZTSSt6vectorISsSaISsEE", metadata !"reserve", metadata !"reserve", metadata !"_ZNSt6vectorISsSaISsEE7reserveEm", i32 755, metadata !126, i1 false, i1 false, i32 0, i32 0, null, i32 256, i1 false, nu
!135 = metadata !{i32 786478, metadata !33, metadata !"_ZTSSt6vectorISsSaISsEE", metadata !"operator[]", metadata !"operator[]", metadata !"_ZNSt6vectorISsSaISsEEixEm", i32 770, metadata !136, i1 false, i1 false, i32 0, i32 0, null, i32 256, i1 false, nu
!136 = metadata !{i32 786453, i32 0, null, metadata !"", i32 0, i64 0, i64 0, i64 0, i32 0, null, metadata !137, i32 0, null, null, null} ; [ DW_TAG_subroutine_type ] [line 0, size 0, align 0, offset 0] [from ]
!137 = metadata !{metadata !138, metadata !39, metadata !49}
!138 = metadata !{i32 786454, metadata !33, metadata !"_ZTSSt6vectorISsSaISsEE", metadata !"reference", i32 225, i64 0, i64 0, i64 0, i32 0, metadata !139} ; [ DW_TAG_typedef ] [reference] [line 225, size 0, align 0, offset 0] [from reference]
!139 = metadata !{i32 786454, metadata !33, metadata !"_ZTSN9__gnu_cxx14__alloc_traitsISaISsEEE", metadata !"reference", i32 135, i64 0, i64 0, i64 0, i32 0, metadata !140} ; [ DW_TAG_typedef ] [reference] [line 135, size 0, align 0, offset 0] [from ]
!140 = metadata !{i32 786448, null, null, null, i32 0, i64 0, i64 0, i64 0, i32 0, metadata !141} ; [ DW_TAG_reference_type ] [line 0, size 0, align 0, offset 0] [from value_type]
!141 = metadata !{i32 786454, metadata !33, metadata !"_ZTSN9__gnu_cxx14__alloc_traitsISaISsEEE", metadata !"value_type", i32 129, i64 0, i64 0, i64 0, i32 0, metadata !142} ; [ DW_TAG_typedef ] [value_type] [line 129, size 0, align 0, offset 0] [from va
!142 = metadata !{i32 786454, metadata !143, metadata !"_ZTSSt16allocator_traitsISaISsEE", metadata !"value_type", i32 90, i64 0, i64 0, i64 0, i32 0, metadata !144} ; [ DW_TAG_typedef ] [value_type] [line 90, size 0, align 0, offset 0] [from value_type]
!143 = metadata !{metadata !"/usr/bin/../lib/gcc/x86_64-linux-gnu/4.8/../../../../include/c++/4.8/bits/alloc_traits.h", metadata !"/home/klee/ST/commission"}
!144 = metadata !{i32 786454, metadata !143, metadata !"_ZTSSaISsE", metadata !"value_type", i32 101, i64 0, i64 0, i64 0, i32 0, metadata !"_ZTSSs"} ; [ DW_TAG_typedef ] [value_type] [line 101, size 0, align 0, offset 0] [from _ZTSSs]
!145 = metadata !{i32 786478, metadata !33, metadata !"_ZTSSt6vectorISsSaISsEE", metadata !"operator[]", metadata !"operator[]", metadata !"_ZNKSt6vectorISsSaISsEEixEm", i32 785, metadata !146, i1 false, i1 false, i32 0, i32 0, null, i32 256, i1 false, n
!146 = metadata !{i32 786453, i32 0, null, metadata !"", i32 0, i64 0, i64 0, i64 0, i32 0, null, metadata !147, i32 0, null, null, null} ; [ DW_TAG_subroutine_type ] [line 0, size 0, align 0, offset 0] [from ]
!147 = metadata !{metadata !148, metadata !104, metadata !49}
!148 = metadata !{i32 786454, metadata !33, metadata !"_ZTSSt6vectorISsSaISsEE", metadata !"const_reference", i32 226, i64 0, i64 0, i64 0, i32 0, metadata !149} ; [ DW_TAG_typedef ] [const_reference] [line 226, size 0, align 0, offset 0] [from const_ref
!149 = metadata !{i32 786454, metadata !33, metadata !"_ZTSN9__gnu_cxx14__alloc_traitsISaISsEEE", metadata !"const_reference", i32 136, i64 0, i64 0, i64 0, i32 0, metadata !150} ; [ DW_TAG_typedef ] [const_reference] [line 136, size 0, align 0, offset 0
!150 = metadata !{i32 786448, null, null, null, i32 0, i64 0, i64 0, i64 0, i32 0, metadata !151} ; [ DW_TAG_reference_type ] [line 0, size 0, align 0, offset 0] [from ]
!151 = metadata !{i32 786470, null, null, metadata !"", i32 0, i64 0, i64 0, i64 0, i32 0, metadata !141} ; [ DW_TAG_const_type ] [line 0, size 0, align 0, offset 0] [from value_type]
!152 = metadata !{i32 786478, metadata !33, metadata !"_ZTSSt6vectorISsSaISsEE", metadata !"_M_range_check", metadata !"_M_range_check", metadata !"_ZNKSt6vectorISsSaISsEE14_M_range_checkEm", i32 791, metadata !153, i1 false, i1 false, i32 0, i32 0, null
!153 = metadata !{i32 786453, i32 0, null, metadata !"", i32 0, i64 0, i64 0, i64 0, i32 0, null, metadata !154, i32 0, null, null, null} ; [ DW_TAG_subroutine_type ] [line 0, size 0, align 0, offset 0] [from ]
!154 = metadata !{null, metadata !104, metadata !49}
!155 = metadata !{i32 786478, metadata !33, metadata !"_ZTSSt6vectorISsSaISsEE", metadata !"at", metadata !"at", metadata !"_ZNSt6vectorISsSaISsEE2atEm", i32 810, metadata !136, i1 false, i1 false, i32 0, i32 0, null, i32 256, i1 false, null, null, i32 0
!156 = metadata !{i32 786478, metadata !33, metadata !"_ZTSSt6vectorISsSaISsEE", metadata !"at", metadata !"at", metadata !"_ZNKSt6vectorISsSaISsEE2atEm", i32 828, metadata !146, i1 false, i1 false, i32 0, i32 0, null, i32 256, i1 false, null, null, i32 
!157 = metadata !{i32 786478, metadata !33, metadata !"_ZTSSt6vectorISsSaISsEE", metadata !"front", metadata !"front", metadata !"_ZNSt6vectorISsSaISsEE5frontEv", i32 839, metadata !158, i1 false, i1 false, i32 0, i32 0, null, i32 256, i1 false, null, nu
!158 = metadata !{i32 786453, i32 0, null, metadata !"", i32 0, i64 0, i64 0, i64 0, i32 0, null, metadata !159, i32 0, null, null, null} ; [ DW_TAG_subroutine_type ] [line 0, size 0, align 0, offset 0] [from ]
!159 = metadata !{metadata !138, metadata !39}
!160 = metadata !{i32 786478, metadata !33, metadata !"_ZTSSt6vectorISsSaISsEE", metadata !"front", metadata !"front", metadata !"_ZNKSt6vectorISsSaISsEE5frontEv", i32 847, metadata !161, i1 false, i1 false, i32 0, i32 0, null, i32 256, i1 false, null, n
!161 = metadata !{i32 786453, i32 0, null, metadata !"", i32 0, i64 0, i64 0, i64 0, i32 0, null, metadata !162, i32 0, null, null, null} ; [ DW_TAG_subroutine_type ] [line 0, size 0, align 0, offset 0] [from ]
!162 = metadata !{metadata !148, metadata !104}
!163 = metadata !{i32 786478, metadata !33, metadata !"_ZTSSt6vectorISsSaISsEE", metadata !"back", metadata !"back", metadata !"_ZNSt6vectorISsSaISsEE4backEv", i32 855, metadata !158, i1 false, i1 false, i32 0, i32 0, null, i32 256, i1 false, null, null,
!164 = metadata !{i32 786478, metadata !33, metadata !"_ZTSSt6vectorISsSaISsEE", metadata !"back", metadata !"back", metadata !"_ZNKSt6vectorISsSaISsEE4backEv", i32 863, metadata !161, i1 false, i1 false, i32 0, i32 0, null, i32 256, i1 false, null, null
!165 = metadata !{i32 786478, metadata !33, metadata !"_ZTSSt6vectorISsSaISsEE", metadata !"data", metadata !"data", metadata !"_ZNSt6vectorISsSaISsEE4dataEv", i32 878, metadata !166, i1 false, i1 false, i32 0, i32 0, null, i32 256, i1 false, null, null,
!166 = metadata !{i32 786453, i32 0, null, metadata !"", i32 0, i64 0, i64 0, i64 0, i32 0, null, metadata !167, i32 0, null, null, null} ; [ DW_TAG_subroutine_type ] [line 0, size 0, align 0, offset 0] [from ]
!167 = metadata !{metadata !168, metadata !39}
!168 = metadata !{i32 786447, null, null, metadata !"", i32 0, i64 64, i64 64, i64 0, i32 0, metadata !"_ZTSSs"} ; [ DW_TAG_pointer_type ] [line 0, size 64, align 64, offset 0] [from _ZTSSs]
!169 = metadata !{i32 786478, metadata !33, metadata !"_ZTSSt6vectorISsSaISsEE", metadata !"data", metadata !"data", metadata !"_ZNKSt6vectorISsSaISsEE4dataEv", i32 886, metadata !170, i1 false, i1 false, i32 0, i32 0, null, i32 256, i1 false, null, null
!170 = metadata !{i32 786453, i32 0, null, metadata !"", i32 0, i64 0, i64 0, i64 0, i32 0, null, metadata !171, i32 0, null, null, null} ; [ DW_TAG_subroutine_type ] [line 0, size 0, align 0, offset 0] [from ]
!171 = metadata !{metadata !172, metadata !104}
!172 = metadata !{i32 786447, null, null, metadata !"", i32 0, i64 64, i64 64, i64 0, i32 0, metadata !173} ; [ DW_TAG_pointer_type ] [line 0, size 64, align 64, offset 0] [from ]
!173 = metadata !{i32 786470, null, null, metadata !"", i32 0, i64 0, i64 0, i64 0, i32 0, metadata !"_ZTSSs"} ; [ DW_TAG_const_type ] [line 0, size 0, align 0, offset 0] [from _ZTSSs]
!174 = metadata !{i32 786478, metadata !33, metadata !"_ZTSSt6vectorISsSaISsEE", metadata !"push_back", metadata !"push_back", metadata !"_ZNSt6vectorISsSaISsEE9push_backERKSs", i32 901, metadata !175, i1 false, i1 false, i32 0, i32 0, null, i32 256, i1 
!175 = metadata !{i32 786453, i32 0, null, metadata !"", i32 0, i64 0, i64 0, i64 0, i32 0, null, metadata !176, i32 0, null, null, null} ; [ DW_TAG_subroutine_type ] [line 0, size 0, align 0, offset 0] [from ]
!176 = metadata !{null, metadata !39, metadata !56}
!177 = metadata !{i32 786478, metadata !33, metadata !"_ZTSSt6vectorISsSaISsEE", metadata !"push_back", metadata !"push_back", metadata !"_ZNSt6vectorISsSaISsEE9push_backEOSs", i32 919, metadata !178, i1 false, i1 false, i32 0, i32 0, null, i32 256, i1 f
!178 = metadata !{i32 786453, i32 0, null, metadata !"", i32 0, i64 0, i64 0, i64 0, i32 0, null, metadata !179, i32 0, null, null, null} ; [ DW_TAG_subroutine_type ] [line 0, size 0, align 0, offset 0] [from ]
!179 = metadata !{null, metadata !39, metadata !180}
!180 = metadata !{i32 786498, null, null, null, i32 0, i64 0, i64 0, i64 0, i32 0, metadata !58} ; [ DW_TAG_rvalue_reference_type ] [line 0, size 0, align 0, offset 0] [from value_type]
!181 = metadata !{i32 786478, metadata !33, metadata !"_ZTSSt6vectorISsSaISsEE", metadata !"pop_back", metadata !"pop_back", metadata !"_ZNSt6vectorISsSaISsEE8pop_backEv", i32 937, metadata !37, i1 false, i1 false, i32 0, i32 0, null, i32 256, i1 false, 
!182 = metadata !{i32 786478, metadata !33, metadata !"_ZTSSt6vectorISsSaISsEE", metadata !"insert", metadata !"insert", metadata !"_ZNSt6vectorISsSaISsEE6insertEN9__gnu_cxx17__normal_iteratorIPSsS1_EERKSs", i32 973, metadata !183, i1 false, i1 false, i3
!183 = metadata !{i32 786453, i32 0, null, metadata !"", i32 0, i64 0, i64 0, i64 0, i32 0, null, metadata !184, i32 0, null, null, null} ; [ DW_TAG_subroutine_type ] [line 0, size 0, align 0, offset 0] [from ]
!184 = metadata !{metadata !99, metadata !39, metadata !99, metadata !56}
!185 = metadata !{i32 786478, metadata !33, metadata !"_ZTSSt6vectorISsSaISsEE", metadata !"insert", metadata !"insert", metadata !"_ZNSt6vectorISsSaISsEE6insertEN9__gnu_cxx17__normal_iteratorIPSsS1_EEOSs", i32 988, metadata !186, i1 false, i1 false, i32
!186 = metadata !{i32 786453, i32 0, null, metadata !"", i32 0, i64 0, i64 0, i64 0, i32 0, null, metadata !187, i32 0, null, null, null} ; [ DW_TAG_subroutine_type ] [line 0, size 0, align 0, offset 0] [from ]
!187 = metadata !{metadata !99, metadata !39, metadata !99, metadata !180}
!188 = metadata !{i32 786478, metadata !33, metadata !"_ZTSSt6vectorISsSaISsEE", metadata !"insert", metadata !"insert", metadata !"_ZNSt6vectorISsSaISsEE6insertEN9__gnu_cxx17__normal_iteratorIPSsS1_EESt16initializer_listISsE", i32 1005, metadata !189, i
!189 = metadata !{i32 786453, i32 0, null, metadata !"", i32 0, i64 0, i64 0, i64 0, i32 0, null, metadata !190, i32 0, null, null, null} ; [ DW_TAG_subroutine_type ] [line 0, size 0, align 0, offset 0] [from ]
!190 = metadata !{null, metadata !39, metadata !99, metadata !77}
!191 = metadata !{i32 786478, metadata !33, metadata !"_ZTSSt6vectorISsSaISsEE", metadata !"insert", metadata !"insert", metadata !"_ZNSt6vectorISsSaISsEE6insertEN9__gnu_cxx17__normal_iteratorIPSsS1_EEmRKSs", i32 1023, metadata !192, i1 false, i1 false, 
!192 = metadata !{i32 786453, i32 0, null, metadata !"", i32 0, i64 0, i64 0, i64 0, i32 0, null, metadata !193, i32 0, null, null, null} ; [ DW_TAG_subroutine_type ] [line 0, size 0, align 0, offset 0] [from ]
!193 = metadata !{null, metadata !39, metadata !99, metadata !49, metadata !56}
!194 = metadata !{i32 786478, metadata !33, metadata !"_ZTSSt6vectorISsSaISsEE", metadata !"erase", metadata !"erase", metadata !"_ZNSt6vectorISsSaISsEE5eraseEN9__gnu_cxx17__normal_iteratorIPSsS1_EE", i32 1075, metadata !195, i1 false, i1 false, i32 0, i
!195 = metadata !{i32 786453, i32 0, null, metadata !"", i32 0, i64 0, i64 0, i64 0, i32 0, null, metadata !196, i32 0, null, null, null} ; [ DW_TAG_subroutine_type ] [line 0, size 0, align 0, offset 0] [from ]
!196 = metadata !{metadata !99, metadata !39, metadata !99}
!197 = metadata !{i32 786478, metadata !33, metadata !"_ZTSSt6vectorISsSaISsEE", metadata !"erase", metadata !"erase", metadata !"_ZNSt6vectorISsSaISsEE5eraseEN9__gnu_cxx17__normal_iteratorIPSsS1_EES5_", i32 1096, metadata !198, i1 false, i1 false, i32 0
!198 = metadata !{i32 786453, i32 0, null, metadata !"", i32 0, i64 0, i64 0, i64 0, i32 0, null, metadata !199, i32 0, null, null, null} ; [ DW_TAG_subroutine_type ] [line 0, size 0, align 0, offset 0] [from ]
!199 = metadata !{metadata !99, metadata !39, metadata !99, metadata !99}
!200 = metadata !{i32 786478, metadata !33, metadata !"_ZTSSt6vectorISsSaISsEE", metadata !"swap", metadata !"swap", metadata !"_ZNSt6vectorISsSaISsEE4swapERS1_", i32 1108, metadata !201, i1 false, i1 false, i32 0, i32 0, null, i32 256, i1 false, null, n
!201 = metadata !{i32 786453, i32 0, null, metadata !"", i32 0, i64 0, i64 0, i64 0, i32 0, null, metadata !202, i32 0, null, null, null} ; [ DW_TAG_subroutine_type ] [line 0, size 0, align 0, offset 0] [from ]
!202 = metadata !{null, metadata !39, metadata !83}
!203 = metadata !{i32 786478, metadata !33, metadata !"_ZTSSt6vectorISsSaISsEE", metadata !"clear", metadata !"clear", metadata !"_ZNSt6vectorISsSaISsEE5clearEv", i32 1125, metadata !37, i1 false, i1 false, i32 0, i32 0, null, i32 256, i1 false, null, nu
!204 = metadata !{i32 786478, metadata !33, metadata !"_ZTSSt6vectorISsSaISsEE", metadata !"_M_fill_initialize", metadata !"_M_fill_initialize", metadata !"_ZNSt6vectorISsSaISsEE18_M_fill_initializeEmRKSs", i32 1212, metadata !91, i1 false, i1 false, i32
!205 = metadata !{i32 786478, metadata !33, metadata !"_ZTSSt6vectorISsSaISsEE", metadata !"_M_default_initialize", metadata !"_M_default_initialize", metadata !"_ZNSt6vectorISsSaISsEE21_M_default_initializeEm", i32 1222, metadata !126, i1 false, i1 fals
!206 = metadata !{i32 786478, metadata !33, metadata !"_ZTSSt6vectorISsSaISsEE", metadata !"_M_fill_assign", metadata !"_M_fill_assign", metadata !"_ZNSt6vectorISsSaISsEE14_M_fill_assignEmRKSs", i32 1268, metadata !91, i1 false, i1 false, i32 0, i32 0, n
!207 = metadata !{i32 786478, metadata !33, metadata !"_ZTSSt6vectorISsSaISsEE", metadata !"_M_fill_insert", metadata !"_M_fill_insert", metadata !"_ZNSt6vectorISsSaISsEE14_M_fill_insertEN9__gnu_cxx17__normal_iteratorIPSsS1_EEmRKSs", i32 1309, metadata !
!208 = metadata !{i32 786478, metadata !33, metadata !"_ZTSSt6vectorISsSaISsEE", metadata !"_M_default_append", metadata !"_M_default_append", metadata !"_ZNSt6vectorISsSaISsEE17_M_default_appendEm", i32 1314, metadata !126, i1 false, i1 false, i32 0, i3
!209 = metadata !{i32 786478, metadata !33, metadata !"_ZTSSt6vectorISsSaISsEE", metadata !"_M_shrink_to_fit", metadata !"_M_shrink_to_fit", metadata !"_ZNSt6vectorISsSaISsEE16_M_shrink_to_fitEv", i32 1317, metadata !210, i1 false, i1 false, i32 0, i32 0
!210 = metadata !{i32 786453, i32 0, null, metadata !"", i32 0, i64 0, i64 0, i64 0, i32 0, null, metadata !211, i32 0, null, null, null} ; [ DW_TAG_subroutine_type ] [line 0, size 0, align 0, offset 0] [from ]
!211 = metadata !{metadata !25, metadata !39}
!212 = metadata !{i32 786478, metadata !33, metadata !"_ZTSSt6vectorISsSaISsEE", metadata !"_M_check_len", metadata !"_M_check_len", metadata !"_ZNKSt6vectorISsSaISsEE12_M_check_lenEmPKc", i32 1336, metadata !213, i1 false, i1 false, i32 0, i32 0, null, 
!213 = metadata !{i32 786453, i32 0, null, metadata !"", i32 0, i64 0, i64 0, i64 0, i32 0, null, metadata !214, i32 0, null, null, null} ; [ DW_TAG_subroutine_type ] [line 0, size 0, align 0, offset 0] [from ]
!214 = metadata !{metadata !49, metadata !104, metadata !49, metadata !215}
!215 = metadata !{i32 786447, null, null, metadata !"", i32 0, i64 64, i64 64, i64 0, i32 0, metadata !216} ; [ DW_TAG_pointer_type ] [line 0, size 64, align 64, offset 0] [from ]
!216 = metadata !{i32 786470, null, null, metadata !"", i32 0, i64 0, i64 0, i64 0, i32 0, metadata !217} ; [ DW_TAG_const_type ] [line 0, size 0, align 0, offset 0] [from char]
!217 = metadata !{i32 786468, null, null, metadata !"char", i32 0, i64 8, i64 8, i64 0, i32 0, i32 6} ; [ DW_TAG_base_type ] [char] [line 0, size 8, align 8, offset 0, enc DW_ATE_signed_char]
!218 = metadata !{i32 786478, metadata !33, metadata !"_ZTSSt6vectorISsSaISsEE", metadata !"_M_erase_at_end", metadata !"_M_erase_at_end", metadata !"_ZNSt6vectorISsSaISsEE15_M_erase_at_endEPSs", i32 1350, metadata !219, i1 false, i1 false, i32 0, i32 0,
!219 = metadata !{i32 786453, i32 0, null, metadata !"", i32 0, i64 0, i64 0, i64 0, i32 0, null, metadata !220, i32 0, null, null, null} ; [ DW_TAG_subroutine_type ] [line 0, size 0, align 0, offset 0] [from ]
!220 = metadata !{null, metadata !39, metadata !221}
!221 = metadata !{i32 786454, metadata !33, metadata !"_ZTSSt6vectorISsSaISsEE", metadata !"pointer", i32 223, i64 0, i64 0, i64 0, i32 0, metadata !222} ; [ DW_TAG_typedef ] [pointer] [line 223, size 0, align 0, offset 0] [from pointer]
!222 = metadata !{i32 786454, metadata !33, metadata !"_ZTSSt12_Vector_baseISsSaISsEE", metadata !"pointer", i32 77, i64 0, i64 0, i64 0, i32 0, metadata !223} ; [ DW_TAG_typedef ] [pointer] [line 77, size 0, align 0, offset 0] [from pointer]
!223 = metadata !{i32 786454, metadata !33, metadata !"_ZTSN9__gnu_cxx14__alloc_traitsISaISsEEE", metadata !"pointer", i32 130, i64 0, i64 0, i64 0, i32 0, metadata !224} ; [ DW_TAG_typedef ] [pointer] [line 130, size 0, align 0, offset 0] [from pointer]
!224 = metadata !{i32 786454, metadata !143, metadata !"_ZTSSt16allocator_traitsISaISsEE", metadata !"pointer", i32 107, i64 0, i64 0, i64 0, i32 0, metadata !225} ; [ DW_TAG_typedef ] [pointer] [line 107, size 0, align 0, offset 0] [from __pointer]
!225 = metadata !{i32 786454, metadata !143, metadata !"_ZTSSt16allocator_traitsISaISsEE", metadata !"__pointer", i32 100, i64 0, i64 0, i64 0, i32 0, metadata !226} ; [ DW_TAG_typedef ] [__pointer] [line 100, size 0, align 0, offset 0] [from pointer]
!226 = metadata !{i32 786454, metadata !143, metadata !"_ZTSSaISsE", metadata !"pointer", i32 97, i64 0, i64 0, i64 0, i32 0, metadata !168} ; [ DW_TAG_typedef ] [pointer] [line 97, size 0, align 0, offset 0] [from ]
!227 = metadata !{i32 786478, metadata !33, metadata !"_ZTSSt6vectorISsSaISsEE", metadata !"_M_move_assign", metadata !"_M_move_assign", metadata !"_ZNSt6vectorISsSaISsEE14_M_move_assignEOS1_St17integral_constantIbLb1EE", i32 1362, metadata !228, i1 fals
!228 = metadata !{i32 786453, i32 0, null, metadata !"", i32 0, i64 0, i64 0, i64 0, i32 0, null, metadata !229, i32 0, null, null, null} ; [ DW_TAG_subroutine_type ] [line 0, size 0, align 0, offset 0] [from ]
!229 = metadata !{null, metadata !39, metadata !67, metadata !230}
!230 = metadata !{i32 786454, metadata !33, metadata !5, metadata !"true_type", i32 69, i64 0, i64 0, i64 0, i32 0, metadata !"_ZTSSt17integral_constantIbLb1EE"} ; [ DW_TAG_typedef ] [true_type] [line 69, size 0, align 0, offset 0] [from _ZTSSt17integral
!231 = metadata !{i32 786478, metadata !33, metadata !"_ZTSSt6vectorISsSaISsEE", metadata !"_M_move_assign", metadata !"_M_move_assign", metadata !"_ZNSt6vectorISsSaISsEE14_M_move_assignEOS1_St17integral_constantIbLb0EE", i32 1375, metadata !232, i1 fals
!232 = metadata !{i32 786453, i32 0, null, metadata !"", i32 0, i64 0, i64 0, i64 0, i32 0, null, metadata !233, i32 0, null, null, null} ; [ DW_TAG_subroutine_type ] [line 0, size 0, align 0, offset 0] [from ]
!233 = metadata !{null, metadata !39, metadata !67, metadata !234}
!234 = metadata !{i32 786454, metadata !143, metadata !5, metadata !"false_type", i32 72, i64 0, i64 0, i64 0, i32 0, metadata !"_ZTSSt17integral_constantIbLb0EE"} ; [ DW_TAG_typedef ] [false_type] [line 72, size 0, align 0, offset 0] [from _ZTSSt17integ
!235 = metadata !{i32 786478, metadata !33, metadata !"_ZTSSt6vectorISsSaISsEE", metadata !"emplace_back<std::basic_string<char> >", metadata !"emplace_back<std::basic_string<char> >", metadata !"_ZNSt6vectorISsSaISsEE12emplace_backIJSsEEEvDpOT_", i32 92
!236 = metadata !{i32 786453, i32 0, null, metadata !"", i32 0, i64 0, i64 0, i64 0, i32 0, null, metadata !237, i32 0, null, null, null} ; [ DW_TAG_subroutine_type ] [line 0, size 0, align 0, offset 0] [from ]
!237 = metadata !{null, metadata !39, metadata !238}
!238 = metadata !{i32 786498, null, null, null, i32 0, i64 0, i64 0, i64 0, i32 0, metadata !"_ZTSSs"} ; [ DW_TAG_rvalue_reference_type ] [line 0, size 0, align 0, offset 0] [from _ZTSSs]
!239 = metadata !{metadata !240}
!240 = metadata !{i32 803079, null, metadata !"_Args", null, metadata !241, null, i32 0, i32 0} ; [ DW_TAG_GNU_template_parameter_pack ]
!241 = metadata !{metadata !242}
!242 = metadata !{i32 786479, null, metadata !"", metadata !"_ZTSSs", null, i32 0, i32 0} ; [ DW_TAG_template_type_parameter ]
!243 = metadata !{i32 786478, metadata !33, metadata !"_ZTSSt6vectorISsSaISsEE", metadata !"_M_emplace_back_aux<std::basic_string<char> >", metadata !"_M_emplace_back_aux<std::basic_string<char> >", metadata !"_ZNSt6vectorISsSaISsEE19_M_emplace_back_auxI
!244 = metadata !{metadata !245, metadata !246}
!245 = metadata !{i32 786479, null, metadata !"_Tp", metadata !"_ZTSSs", null, i32 0, i32 0} ; [ DW_TAG_template_type_parameter ]
!246 = metadata !{i32 786479, null, metadata !"_Alloc", metadata !"_ZTSSaISsE", null, i32 0, i32 0} ; [ DW_TAG_template_type_parameter ]
!247 = metadata !{i32 786434, metadata !248, metadata !5, metadata !"basic_string<char>", i32 1132, i64 64, i64 64, i32 0, i32 0, null, metadata !249, i32 0, null, metadata !630, metadata !"_ZTSSs"} ; [ DW_TAG_class_type ] [basic_string<char>] [line 1132
!248 = metadata !{metadata !"/usr/bin/../lib/gcc/x86_64-linux-gnu/4.8/../../../../include/c++/4.8/bits/basic_string.tcc", metadata !"/home/klee/ST/commission"}
!249 = metadata !{metadata !250, metadata !255, metadata !256, metadata !261, metadata !265, metadata !269, metadata !273, metadata !274, metadata !277, metadata !280, metadata !283, metadata !286, metadata !289, metadata !292, metadata !293, metadata !2
!250 = metadata !{i32 786445, metadata !251, metadata !"_ZTSSs", metadata !"npos", i32 285, i64 0, i64 0, i64 0, i32 4096, metadata !252, i64 -1} ; [ DW_TAG_member ] [npos] [line 285, size 0, align 0, offset 0] [static] [from ]
!251 = metadata !{metadata !"/usr/bin/../lib/gcc/x86_64-linux-gnu/4.8/../../../../include/c++/4.8/bits/basic_string.h", metadata !"/home/klee/ST/commission"}
!252 = metadata !{i32 786470, null, null, metadata !"", i32 0, i64 0, i64 0, i64 0, i32 0, metadata !253} ; [ DW_TAG_const_type ] [line 0, size 0, align 0, offset 0] [from size_type]
!253 = metadata !{i32 786454, metadata !251, metadata !"_ZTSSs", metadata !"size_type", i32 121, i64 0, i64 0, i64 0, i32 0, metadata !254} ; [ DW_TAG_typedef ] [size_type] [line 121, size 0, align 0, offset 0] [from size_type]
!254 = metadata !{i32 786454, metadata !251, metadata !"_ZTSSaIcE", metadata !"size_type", i32 95, i64 0, i64 0, i64 0, i32 0, metadata !50} ; [ DW_TAG_typedef ] [size_type] [line 95, size 0, align 0, offset 0] [from size_t]
!255 = metadata !{i32 786445, metadata !251, metadata !"_ZTSSs", metadata !"_M_dataplus", i32 289, i64 64, i64 64, i64 0, i32 1, metadata !"_ZTSNSs12_Alloc_hiderE"} ; [ DW_TAG_member ] [_M_dataplus] [line 289, size 64, align 64, offset 0] [private] [from
!256 = metadata !{i32 786478, metadata !251, metadata !"_ZTSSs", metadata !"_M_data", metadata !"_M_data", metadata !"_ZNKSs7_M_dataEv", i32 292, metadata !257, i1 false, i1 false, i32 0, i32 0, null, i32 257, i1 false, null, null, i32 0, metadata !30, i
!257 = metadata !{i32 786453, i32 0, null, metadata !"", i32 0, i64 0, i64 0, i64 0, i32 0, null, metadata !258, i32 0, null, null, null} ; [ DW_TAG_subroutine_type ] [line 0, size 0, align 0, offset 0] [from ]
!258 = metadata !{metadata !259, metadata !260}
!259 = metadata !{i32 786447, null, null, metadata !"", i32 0, i64 64, i64 64, i64 0, i32 0, metadata !217} ; [ DW_TAG_pointer_type ] [line 0, size 64, align 64, offset 0] [from char]
!260 = metadata !{i32 786447, null, null, metadata !"", i32 0, i64 64, i64 64, i64 0, i32 1088, metadata !173} ; [ DW_TAG_pointer_type ] [line 0, size 64, align 64, offset 0] [artificial] [from ]
!261 = metadata !{i32 786478, metadata !251, metadata !"_ZTSSs", metadata !"_M_data", metadata !"_M_data", metadata !"_ZNSs7_M_dataEPc", i32 296, metadata !262, i1 false, i1 false, i32 0, i32 0, null, i32 257, i1 false, null, null, i32 0, metadata !30, i
!262 = metadata !{i32 786453, i32 0, null, metadata !"", i32 0, i64 0, i64 0, i64 0, i32 0, null, metadata !263, i32 0, null, null, null} ; [ DW_TAG_subroutine_type ] [line 0, size 0, align 0, offset 0] [from ]
!263 = metadata !{metadata !259, metadata !264, metadata !259}
!264 = metadata !{i32 786447, null, null, metadata !"", i32 0, i64 64, i64 64, i64 0, i32 1088, metadata !"_ZTSSs"} ; [ DW_TAG_pointer_type ] [line 0, size 64, align 64, offset 0] [artificial] [from _ZTSSs]
!265 = metadata !{i32 786478, metadata !251, metadata !"_ZTSSs", metadata !"_M_rep", metadata !"_M_rep", metadata !"_ZNKSs6_M_repEv", i32 300, metadata !266, i1 false, i1 false, i32 0, i32 0, null, i32 257, i1 false, null, null, i32 0, metadata !30, i32 
!266 = metadata !{i32 786453, i32 0, null, metadata !"", i32 0, i64 0, i64 0, i64 0, i32 0, null, metadata !267, i32 0, null, null, null} ; [ DW_TAG_subroutine_type ] [line 0, size 0, align 0, offset 0] [from ]
!267 = metadata !{metadata !268, metadata !260}
!268 = metadata !{i32 786447, null, null, metadata !"", i32 0, i64 64, i64 64, i64 0, i32 0, metadata !"_ZTSNSs4_RepE"} ; [ DW_TAG_pointer_type ] [line 0, size 64, align 64, offset 0] [from _ZTSNSs4_RepE]
!269 = metadata !{i32 786478, metadata !251, metadata !"_ZTSSs", metadata !"_M_ibegin", metadata !"_M_ibegin", metadata !"_ZNKSs9_M_ibeginEv", i32 306, metadata !270, i1 false, i1 false, i32 0, i32 0, null, i32 257, i1 false, null, null, i32 0, metadata 
!270 = metadata !{i32 786453, i32 0, null, metadata !"", i32 0, i64 0, i64 0, i64 0, i32 0, null, metadata !271, i32 0, null, null, null} ; [ DW_TAG_subroutine_type ] [line 0, size 0, align 0, offset 0] [from ]
!271 = metadata !{metadata !272, metadata !260}
!272 = metadata !{i32 786454, metadata !248, metadata !"_ZTSSs", metadata !"iterator", i32 127, i64 0, i64 0, i64 0, i32 0, metadata !"_ZTSN9__gnu_cxx17__normal_iteratorIPcSsEE"} ; [ DW_TAG_typedef ] [iterator] [line 127, size 0, align 0, offset 0] [from
!273 = metadata !{i32 786478, metadata !251, metadata !"_ZTSSs", metadata !"_M_iend", metadata !"_M_iend", metadata !"_ZNKSs7_M_iendEv", i32 310, metadata !270, i1 false, i1 false, i32 0, i32 0, null, i32 257, i1 false, null, null, i32 0, metadata !30, i
!274 = metadata !{i32 786478, metadata !251, metadata !"_ZTSSs", metadata !"_M_leak", metadata !"_M_leak", metadata !"_ZNSs7_M_leakEv", i32 314, metadata !275, i1 false, i1 false, i32 0, i32 0, null, i32 257, i1 false, null, null, i32 0, metadata !30, i3
!275 = metadata !{i32 786453, i32 0, null, metadata !"", i32 0, i64 0, i64 0, i64 0, i32 0, null, metadata !276, i32 0, null, null, null} ; [ DW_TAG_subroutine_type ] [line 0, size 0, align 0, offset 0] [from ]
!276 = metadata !{null, metadata !264}
!277 = metadata !{i32 786478, metadata !251, metadata !"_ZTSSs", metadata !"_M_check", metadata !"_M_check", metadata !"_ZNKSs8_M_checkEmPKc", i32 321, metadata !278, i1 false, i1 false, i32 0, i32 0, null, i32 257, i1 false, null, null, i32 0, metadata 
!278 = metadata !{i32 786453, i32 0, null, metadata !"", i32 0, i64 0, i64 0, i64 0, i32 0, null, metadata !279, i32 0, null, null, null} ; [ DW_TAG_subroutine_type ] [line 0, size 0, align 0, offset 0] [from ]
!279 = metadata !{metadata !253, metadata !260, metadata !253, metadata !215}
!280 = metadata !{i32 786478, metadata !251, metadata !"_ZTSSs", metadata !"_M_check_length", metadata !"_M_check_length", metadata !"_ZNKSs15_M_check_lengthEmmPKc", i32 329, metadata !281, i1 false, i1 false, i32 0, i32 0, null, i32 257, i1 false, null,
!281 = metadata !{i32 786453, i32 0, null, metadata !"", i32 0, i64 0, i64 0, i64 0, i32 0, null, metadata !282, i32 0, null, null, null} ; [ DW_TAG_subroutine_type ] [line 0, size 0, align 0, offset 0] [from ]
!282 = metadata !{null, metadata !260, metadata !253, metadata !253, metadata !215}
!283 = metadata !{i32 786478, metadata !251, metadata !"_ZTSSs", metadata !"_M_limit", metadata !"_M_limit", metadata !"_ZNKSs8_M_limitEmm", i32 337, metadata !284, i1 false, i1 false, i32 0, i32 0, null, i32 257, i1 false, null, null, i32 0, metadata !3
!284 = metadata !{i32 786453, i32 0, null, metadata !"", i32 0, i64 0, i64 0, i64 0, i32 0, null, metadata !285, i32 0, null, null, null} ; [ DW_TAG_subroutine_type ] [line 0, size 0, align 0, offset 0] [from ]
!285 = metadata !{metadata !253, metadata !260, metadata !253, metadata !253}
!286 = metadata !{i32 786478, metadata !251, metadata !"_ZTSSs", metadata !"_M_disjunct", metadata !"_M_disjunct", metadata !"_ZNKSs11_M_disjunctEPKc", i32 345, metadata !287, i1 false, i1 false, i32 0, i32 0, null, i32 257, i1 false, null, null, i32 0, 
!287 = metadata !{i32 786453, i32 0, null, metadata !"", i32 0, i64 0, i64 0, i64 0, i32 0, null, metadata !288, i32 0, null, null, null} ; [ DW_TAG_subroutine_type ] [line 0, size 0, align 0, offset 0] [from ]
!288 = metadata !{metadata !25, metadata !260, metadata !215}
!289 = metadata !{i32 786478, metadata !251, metadata !"_ZTSSs", metadata !"_M_copy", metadata !"_M_copy", metadata !"_ZNSs7_M_copyEPcPKcm", i32 354, metadata !290, i1 false, i1 false, i32 0, i32 0, null, i32 257, i1 false, null, null, i32 0, metadata !3
!290 = metadata !{i32 786453, i32 0, null, metadata !"", i32 0, i64 0, i64 0, i64 0, i32 0, null, metadata !291, i32 0, null, null, null} ; [ DW_TAG_subroutine_type ] [line 0, size 0, align 0, offset 0] [from ]
!291 = metadata !{null, metadata !259, metadata !215, metadata !253}
!292 = metadata !{i32 786478, metadata !251, metadata !"_ZTSSs", metadata !"_M_move", metadata !"_M_move", metadata !"_ZNSs7_M_moveEPcPKcm", i32 363, metadata !290, i1 false, i1 false, i32 0, i32 0, null, i32 257, i1 false, null, null, i32 0, metadata !3
!293 = metadata !{i32 786478, metadata !251, metadata !"_ZTSSs", metadata !"_M_assign", metadata !"_M_assign", metadata !"_ZNSs9_M_assignEPcmc", i32 372, metadata !294, i1 false, i1 false, i32 0, i32 0, null, i32 257, i1 false, null, null, i32 0, metadat
!294 = metadata !{i32 786453, i32 0, null, metadata !"", i32 0, i64 0, i64 0, i64 0, i32 0, null, metadata !295, i32 0, null, null, null} ; [ DW_TAG_subroutine_type ] [line 0, size 0, align 0, offset 0] [from ]
!295 = metadata !{null, metadata !259, metadata !253, metadata !217}
!296 = metadata !{i32 786478, metadata !251, metadata !"_ZTSSs", metadata !"_S_copy_chars", metadata !"_S_copy_chars", metadata !"_ZNSs13_S_copy_charsEPcN9__gnu_cxx17__normal_iteratorIS_SsEES2_", i32 391, metadata !297, i1 false, i1 false, i32 0, i32 0, 
!297 = metadata !{i32 786453, i32 0, null, metadata !"", i32 0, i64 0, i64 0, i64 0, i32 0, null, metadata !298, i32 0, null, null, null} ; [ DW_TAG_subroutine_type ] [line 0, size 0, align 0, offset 0] [from ]
!298 = metadata !{null, metadata !259, metadata !272, metadata !272}
!299 = metadata !{i32 786478, metadata !251, metadata !"_ZTSSs", metadata !"_S_copy_chars", metadata !"_S_copy_chars", metadata !"_ZNSs13_S_copy_charsEPcN9__gnu_cxx17__normal_iteratorIPKcSsEES4_", i32 395, metadata !300, i1 false, i1 false, i32 0, i32 0,
!300 = metadata !{i32 786453, i32 0, null, metadata !"", i32 0, i64 0, i64 0, i64 0, i32 0, null, metadata !301, i32 0, null, null, null} ; [ DW_TAG_subroutine_type ] [line 0, size 0, align 0, offset 0] [from ]
!301 = metadata !{null, metadata !259, metadata !302, metadata !302}
!302 = metadata !{i32 786454, metadata !248, metadata !"_ZTSSs", metadata !"const_iterator", i32 129, i64 0, i64 0, i64 0, i32 0, metadata !"_ZTSN9__gnu_cxx17__normal_iteratorIPKcSsEE"} ; [ DW_TAG_typedef ] [const_iterator] [line 129, size 0, align 0, of
!303 = metadata !{i32 786478, metadata !251, metadata !"_ZTSSs", metadata !"_S_copy_chars", metadata !"_S_copy_chars", metadata !"_ZNSs13_S_copy_charsEPcS_S_", i32 399, metadata !304, i1 false, i1 false, i32 0, i32 0, null, i32 257, i1 false, null, null,
!304 = metadata !{i32 786453, i32 0, null, metadata !"", i32 0, i64 0, i64 0, i64 0, i32 0, null, metadata !305, i32 0, null, null, null} ; [ DW_TAG_subroutine_type ] [line 0, size 0, align 0, offset 0] [from ]
!305 = metadata !{null, metadata !259, metadata !259, metadata !259}
!306 = metadata !{i32 786478, metadata !251, metadata !"_ZTSSs", metadata !"_S_copy_chars", metadata !"_S_copy_chars", metadata !"_ZNSs13_S_copy_charsEPcPKcS1_", i32 403, metadata !307, i1 false, i1 false, i32 0, i32 0, null, i32 257, i1 false, null, nul
!307 = metadata !{i32 786453, i32 0, null, metadata !"", i32 0, i64 0, i64 0, i64 0, i32 0, null, metadata !308, i32 0, null, null, null} ; [ DW_TAG_subroutine_type ] [line 0, size 0, align 0, offset 0] [from ]
!308 = metadata !{null, metadata !259, metadata !215, metadata !215}
!309 = metadata !{i32 786478, metadata !251, metadata !"_ZTSSs", metadata !"_S_compare", metadata !"_S_compare", metadata !"_ZNSs10_S_compareEmm", i32 407, metadata !310, i1 false, i1 false, i32 0, i32 0, null, i32 257, i1 false, null, null, i32 0, metad
!310 = metadata !{i32 786453, i32 0, null, metadata !"", i32 0, i64 0, i64 0, i64 0, i32 0, null, metadata !311, i32 0, null, null, null} ; [ DW_TAG_subroutine_type ] [line 0, size 0, align 0, offset 0] [from ]
!311 = metadata !{metadata !23, metadata !253, metadata !253}
!312 = metadata !{i32 786478, metadata !251, metadata !"_ZTSSs", metadata !"_M_mutate", metadata !"_M_mutate", metadata !"_ZNSs9_M_mutateEmmm", i32 420, metadata !313, i1 false, i1 false, i32 0, i32 0, null, i32 257, i1 false, null, null, i32 0, metadata
!313 = metadata !{i32 786453, i32 0, null, metadata !"", i32 0, i64 0, i64 0, i64 0, i32 0, null, metadata !314, i32 0, null, null, null} ; [ DW_TAG_subroutine_type ] [line 0, size 0, align 0, offset 0] [from ]
!314 = metadata !{null, metadata !264, metadata !253, metadata !253, metadata !253}
!315 = metadata !{i32 786478, metadata !251, metadata !"_ZTSSs", metadata !"_M_leak_hard", metadata !"_M_leak_hard", metadata !"_ZNSs12_M_leak_hardEv", i32 423, metadata !275, i1 false, i1 false, i32 0, i32 0, null, i32 257, i1 false, null, null, i32 0, 
!316 = metadata !{i32 786478, metadata !251, metadata !"_ZTSSs", metadata !"_S_empty_rep", metadata !"_S_empty_rep", metadata !"_ZNSs12_S_empty_repEv", i32 426, metadata !317, i1 false, i1 false, i32 0, i32 0, null, i32 257, i1 false, null, null, i32 0, 
!317 = metadata !{i32 786453, i32 0, null, metadata !"", i32 0, i64 0, i64 0, i64 0, i32 0, null, metadata !318, i32 0, null, null, null} ; [ DW_TAG_subroutine_type ] [line 0, size 0, align 0, offset 0] [from ]
!318 = metadata !{metadata !319}
!319 = metadata !{i32 786448, null, null, null, i32 0, i64 0, i64 0, i64 0, i32 0, metadata !"_ZTSNSs4_RepE"} ; [ DW_TAG_reference_type ] [line 0, size 0, align 0, offset 0] [from _ZTSNSs4_RepE]
!320 = metadata !{i32 786478, metadata !251, metadata !"_ZTSSs", metadata !"basic_string", metadata !"basic_string", metadata !"", i32 437, metadata !275, i1 false, i1 false, i32 0, i32 0, null, i32 256, i1 false, null, null, i32 0, metadata !30, i32 437
!321 = metadata !{i32 786478, metadata !251, metadata !"_ZTSSs", metadata !"basic_string", metadata !"basic_string", metadata !"", i32 448, metadata !322, i1 false, i1 false, i32 0, i32 0, null, i32 384, i1 false, null, null, i32 0, metadata !30, i32 448
!322 = metadata !{i32 786453, i32 0, null, metadata !"", i32 0, i64 0, i64 0, i64 0, i32 0, null, metadata !323, i32 0, null, null, null} ; [ DW_TAG_subroutine_type ] [line 0, size 0, align 0, offset 0] [from ]
!323 = metadata !{null, metadata !264, metadata !324}
!324 = metadata !{i32 786448, null, null, null, i32 0, i64 0, i64 0, i64 0, i32 0, metadata !325} ; [ DW_TAG_reference_type ] [line 0, size 0, align 0, offset 0] [from ]
!325 = metadata !{i32 786470, null, null, metadata !"", i32 0, i64 0, i64 0, i64 0, i32 0, metadata !"_ZTSSaIcE"} ; [ DW_TAG_const_type ] [line 0, size 0, align 0, offset 0] [from _ZTSSaIcE]
!326 = metadata !{i32 786478, metadata !251, metadata !"_ZTSSs", metadata !"basic_string", metadata !"basic_string", metadata !"", i32 455, metadata !327, i1 false, i1 false, i32 0, i32 0, null, i32 256, i1 false, null, null, i32 0, metadata !30, i32 455
!327 = metadata !{i32 786453, i32 0, null, metadata !"", i32 0, i64 0, i64 0, i64 0, i32 0, null, metadata !328, i32 0, null, null, null} ; [ DW_TAG_subroutine_type ] [line 0, size 0, align 0, offset 0] [from ]
!328 = metadata !{null, metadata !264, metadata !329}
!329 = metadata !{i32 786448, null, null, null, i32 0, i64 0, i64 0, i64 0, i32 0, metadata !173} ; [ DW_TAG_reference_type ] [line 0, size 0, align 0, offset 0] [from ]
!330 = metadata !{i32 786478, metadata !251, metadata !"_ZTSSs", metadata !"basic_string", metadata !"basic_string", metadata !"", i32 462, metadata !331, i1 false, i1 false, i32 0, i32 0, null, i32 256, i1 false, null, null, i32 0, metadata !30, i32 462
!331 = metadata !{i32 786453, i32 0, null, metadata !"", i32 0, i64 0, i64 0, i64 0, i32 0, null, metadata !332, i32 0, null, null, null} ; [ DW_TAG_subroutine_type ] [line 0, size 0, align 0, offset 0] [from ]
!332 = metadata !{null, metadata !264, metadata !329, metadata !253, metadata !253}
!333 = metadata !{i32 786478, metadata !251, metadata !"_ZTSSs", metadata !"basic_string", metadata !"basic_string", metadata !"", i32 471, metadata !334, i1 false, i1 false, i32 0, i32 0, null, i32 256, i1 false, null, null, i32 0, metadata !30, i32 471
!334 = metadata !{i32 786453, i32 0, null, metadata !"", i32 0, i64 0, i64 0, i64 0, i32 0, null, metadata !335, i32 0, null, null, null} ; [ DW_TAG_subroutine_type ] [line 0, size 0, align 0, offset 0] [from ]
!335 = metadata !{null, metadata !264, metadata !329, metadata !253, metadata !253, metadata !324}
!336 = metadata !{i32 786478, metadata !251, metadata !"_ZTSSs", metadata !"basic_string", metadata !"basic_string", metadata !"", i32 483, metadata !337, i1 false, i1 false, i32 0, i32 0, null, i32 256, i1 false, null, null, i32 0, metadata !30, i32 483
!337 = metadata !{i32 786453, i32 0, null, metadata !"", i32 0, i64 0, i64 0, i64 0, i32 0, null, metadata !338, i32 0, null, null, null} ; [ DW_TAG_subroutine_type ] [line 0, size 0, align 0, offset 0] [from ]
!338 = metadata !{null, metadata !264, metadata !215, metadata !253, metadata !324}
!339 = metadata !{i32 786478, metadata !251, metadata !"_ZTSSs", metadata !"basic_string", metadata !"basic_string", metadata !"", i32 490, metadata !340, i1 false, i1 false, i32 0, i32 0, null, i32 256, i1 false, null, null, i32 0, metadata !30, i32 490
!340 = metadata !{i32 786453, i32 0, null, metadata !"", i32 0, i64 0, i64 0, i64 0, i32 0, null, metadata !341, i32 0, null, null, null} ; [ DW_TAG_subroutine_type ] [line 0, size 0, align 0, offset 0] [from ]
!341 = metadata !{null, metadata !264, metadata !215, metadata !324}
!342 = metadata !{i32 786478, metadata !251, metadata !"_ZTSSs", metadata !"basic_string", metadata !"basic_string", metadata !"", i32 497, metadata !343, i1 false, i1 false, i32 0, i32 0, null, i32 256, i1 false, null, null, i32 0, metadata !30, i32 497
!343 = metadata !{i32 786453, i32 0, null, metadata !"", i32 0, i64 0, i64 0, i64 0, i32 0, null, metadata !344, i32 0, null, null, null} ; [ DW_TAG_subroutine_type ] [line 0, size 0, align 0, offset 0] [from ]
!344 = metadata !{null, metadata !264, metadata !253, metadata !217, metadata !324}
!345 = metadata !{i32 786478, metadata !251, metadata !"_ZTSSs", metadata !"basic_string", metadata !"basic_string", metadata !"", i32 507, metadata !346, i1 false, i1 false, i32 0, i32 0, null, i32 256, i1 false, null, null, i32 0, metadata !30, i32 507
!346 = metadata !{i32 786453, i32 0, null, metadata !"", i32 0, i64 0, i64 0, i64 0, i32 0, null, metadata !347, i32 0, null, null, null} ; [ DW_TAG_subroutine_type ] [line 0, size 0, align 0, offset 0] [from ]
!347 = metadata !{null, metadata !264, metadata !238}
!348 = metadata !{i32 786478, metadata !251, metadata !"_ZTSSs", metadata !"basic_string", metadata !"basic_string", metadata !"", i32 522, metadata !349, i1 false, i1 false, i32 0, i32 0, null, i32 256, i1 false, null, null, i32 0, metadata !30, i32 522
!349 = metadata !{i32 786453, i32 0, null, metadata !"", i32 0, i64 0, i64 0, i64 0, i32 0, null, metadata !350, i32 0, null, null, null} ; [ DW_TAG_subroutine_type ] [line 0, size 0, align 0, offset 0] [from ]
!350 = metadata !{null, metadata !264, metadata !351, metadata !324}
!351 = metadata !{i32 786434, metadata !78, metadata !5, metadata !"initializer_list<char>", i32 47, i64 128, i64 64, i32 0, i32 0, null, metadata !352, i32 0, null, metadata !374, metadata !"_ZTSSt16initializer_listIcE"} ; [ DW_TAG_class_type ] [initial
!352 = metadata !{metadata !353, metadata !355, metadata !357, metadata !362, metadata !365, metadata !370, metadata !373}
!353 = metadata !{i32 786445, metadata !78, metadata !"_ZTSSt16initializer_listIcE", metadata !"_M_array", i32 58, i64 64, i64 64, i64 0, i32 1, metadata !354} ; [ DW_TAG_member ] [_M_array] [line 58, size 64, align 64, offset 0] [private] [from iterator
!354 = metadata !{i32 786454, metadata !78, metadata !"_ZTSSt16initializer_listIcE", metadata !"iterator", i32 54, i64 0, i64 0, i64 0, i32 0, metadata !215} ; [ DW_TAG_typedef ] [iterator] [line 54, size 0, align 0, offset 0] [from ]
!355 = metadata !{i32 786445, metadata !78, metadata !"_ZTSSt16initializer_listIcE", metadata !"_M_len", i32 59, i64 64, i64 64, i64 64, i32 1, metadata !356} ; [ DW_TAG_member ] [_M_len] [line 59, size 64, align 64, offset 64] [private] [from size_type]
!356 = metadata !{i32 786454, metadata !78, null, metadata !"size_type", i32 53, i64 0, i64 0, i64 0, i32 0, metadata !50} ; [ DW_TAG_typedef ] [size_type] [line 53, size 0, align 0, offset 0] [from size_t]
!357 = metadata !{i32 786478, metadata !78, metadata !"_ZTSSt16initializer_listIcE", metadata !"initializer_list", metadata !"initializer_list", metadata !"", i32 62, metadata !358, i1 false, i1 false, i32 0, i32 0, null, i32 257, i1 false, null, null, i
!358 = metadata !{i32 786453, i32 0, null, metadata !"", i32 0, i64 0, i64 0, i64 0, i32 0, null, metadata !359, i32 0, null, null, null} ; [ DW_TAG_subroutine_type ] [line 0, size 0, align 0, offset 0] [from ]
!359 = metadata !{null, metadata !360, metadata !361, metadata !356}
!360 = metadata !{i32 786447, null, null, metadata !"", i32 0, i64 64, i64 64, i64 0, i32 1088, metadata !"_ZTSSt16initializer_listIcE"} ; [ DW_TAG_pointer_type ] [line 0, size 64, align 64, offset 0] [artificial] [from _ZTSSt16initializer_listIcE]
!361 = metadata !{i32 786454, metadata !78, metadata !"_ZTSSt16initializer_listIcE", metadata !"const_iterator", i32 55, i64 0, i64 0, i64 0, i32 0, metadata !215} ; [ DW_TAG_typedef ] [const_iterator] [line 55, size 0, align 0, offset 0] [from ]
!362 = metadata !{i32 786478, metadata !78, metadata !"_ZTSSt16initializer_listIcE", metadata !"initializer_list", metadata !"initializer_list", metadata !"", i32 66, metadata !363, i1 false, i1 false, i32 0, i32 0, null, i32 256, i1 false, null, null, i
!363 = metadata !{i32 786453, i32 0, null, metadata !"", i32 0, i64 0, i64 0, i64 0, i32 0, null, metadata !364, i32 0, null, null, null} ; [ DW_TAG_subroutine_type ] [line 0, size 0, align 0, offset 0] [from ]
!364 = metadata !{null, metadata !360}
!365 = metadata !{i32 786478, metadata !78, metadata !"_ZTSSt16initializer_listIcE", metadata !"size", metadata !"size", metadata !"_ZNKSt16initializer_listIcE4sizeEv", i32 71, metadata !366, i1 false, i1 false, i32 0, i32 0, null, i32 256, i1 false, nul
!366 = metadata !{i32 786453, i32 0, null, metadata !"", i32 0, i64 0, i64 0, i64 0, i32 0, null, metadata !367, i32 0, null, null, null} ; [ DW_TAG_subroutine_type ] [line 0, size 0, align 0, offset 0] [from ]
!367 = metadata !{metadata !356, metadata !368}
!368 = metadata !{i32 786447, null, null, metadata !"", i32 0, i64 64, i64 64, i64 0, i32 1088, metadata !369} ; [ DW_TAG_pointer_type ] [line 0, size 64, align 64, offset 0] [artificial] [from ]
!369 = metadata !{i32 786470, null, null, metadata !"", i32 0, i64 0, i64 0, i64 0, i32 0, metadata !"_ZTSSt16initializer_listIcE"} ; [ DW_TAG_const_type ] [line 0, size 0, align 0, offset 0] [from _ZTSSt16initializer_listIcE]
!370 = metadata !{i32 786478, metadata !78, metadata !"_ZTSSt16initializer_listIcE", metadata !"begin", metadata !"begin", metadata !"_ZNKSt16initializer_listIcE5beginEv", i32 75, metadata !371, i1 false, i1 false, i32 0, i32 0, null, i32 256, i1 false, 
!371 = metadata !{i32 786453, i32 0, null, metadata !"", i32 0, i64 0, i64 0, i64 0, i32 0, null, metadata !372, i32 0, null, null, null} ; [ DW_TAG_subroutine_type ] [line 0, size 0, align 0, offset 0] [from ]
!372 = metadata !{metadata !361, metadata !368}
!373 = metadata !{i32 786478, metadata !78, metadata !"_ZTSSt16initializer_listIcE", metadata !"end", metadata !"end", metadata !"_ZNKSt16initializer_listIcE3endEv", i32 79, metadata !371, i1 false, i1 false, i32 0, i32 0, null, i32 256, i1 false, null, 
!374 = metadata !{metadata !375}
!375 = metadata !{i32 786479, null, metadata !"_E", metadata !217, null, i32 0, i32 0} ; [ DW_TAG_template_type_parameter ]
!376 = metadata !{i32 786478, metadata !251, metadata !"_ZTSSs", metadata !"~basic_string", metadata !"~basic_string", metadata !"", i32 538, metadata !275, i1 false, i1 false, i32 0, i32 0, null, i32 256, i1 false, null, null, i32 0, metadata !30, i32 5
!377 = metadata !{i32 786478, metadata !251, metadata !"_ZTSSs", metadata !"operator=", metadata !"operator=", metadata !"_ZNSsaSERKSs", i32 546, metadata !378, i1 false, i1 false, i32 0, i32 0, null, i32 256, i1 false, null, null, i32 0, metadata !30, i
!378 = metadata !{i32 786453, i32 0, null, metadata !"", i32 0, i64 0, i64 0, i64 0, i32 0, null, metadata !379, i32 0, null, null, null} ; [ DW_TAG_subroutine_type ] [line 0, size 0, align 0, offset 0] [from ]
!379 = metadata !{metadata !380, metadata !264, metadata !329}
!380 = metadata !{i32 786448, null, null, null, i32 0, i64 0, i64 0, i64 0, i32 0, metadata !"_ZTSSs"} ; [ DW_TAG_reference_type ] [line 0, size 0, align 0, offset 0] [from _ZTSSs]
!381 = metadata !{i32 786478, metadata !251, metadata !"_ZTSSs", metadata !"operator=", metadata !"operator=", metadata !"_ZNSsaSEPKc", i32 554, metadata !382, i1 false, i1 false, i32 0, i32 0, null, i32 256, i1 false, null, null, i32 0, metadata !30, i3
!382 = metadata !{i32 786453, i32 0, null, metadata !"", i32 0, i64 0, i64 0, i64 0, i32 0, null, metadata !383, i32 0, null, null, null} ; [ DW_TAG_subroutine_type ] [line 0, size 0, align 0, offset 0] [from ]
!383 = metadata !{metadata !380, metadata !264, metadata !215}
!384 = metadata !{i32 786478, metadata !251, metadata !"_ZTSSs", metadata !"operator=", metadata !"operator=", metadata !"_ZNSsaSEc", i32 565, metadata !385, i1 false, i1 false, i32 0, i32 0, null, i32 256, i1 false, null, null, i32 0, metadata !30, i32 
!385 = metadata !{i32 786453, i32 0, null, metadata !"", i32 0, i64 0, i64 0, i64 0, i32 0, null, metadata !386, i32 0, null, null, null} ; [ DW_TAG_subroutine_type ] [line 0, size 0, align 0, offset 0] [from ]
!386 = metadata !{metadata !380, metadata !264, metadata !217}
!387 = metadata !{i32 786478, metadata !251, metadata !"_ZTSSs", metadata !"operator=", metadata !"operator=", metadata !"_ZNSsaSEOSs", i32 580, metadata !388, i1 false, i1 false, i32 0, i32 0, null, i32 256, i1 false, null, null, i32 0, metadata !30, i3
!388 = metadata !{i32 786453, i32 0, null, metadata !"", i32 0, i64 0, i64 0, i64 0, i32 0, null, metadata !389, i32 0, null, null, null} ; [ DW_TAG_subroutine_type ] [line 0, size 0, align 0, offset 0] [from ]
!389 = metadata !{metadata !380, metadata !264, metadata !238}
!390 = metadata !{i32 786478, metadata !251, metadata !"_ZTSSs", metadata !"operator=", metadata !"operator=", metadata !"_ZNSsaSESt16initializer_listIcE", i32 592, metadata !391, i1 false, i1 false, i32 0, i32 0, null, i32 256, i1 false, null, null, i32
!391 = metadata !{i32 786453, i32 0, null, metadata !"", i32 0, i64 0, i64 0, i64 0, i32 0, null, metadata !392, i32 0, null, null, null} ; [ DW_TAG_subroutine_type ] [line 0, size 0, align 0, offset 0] [from ]
!392 = metadata !{metadata !380, metadata !264, metadata !351}
!393 = metadata !{i32 786478, metadata !251, metadata !"_ZTSSs", metadata !"begin", metadata !"begin", metadata !"_ZNSs5beginEv", i32 605, metadata !394, i1 false, i1 false, i32 0, i32 0, null, i32 256, i1 false, null, null, i32 0, metadata !30, i32 605}
!394 = metadata !{i32 786453, i32 0, null, metadata !"", i32 0, i64 0, i64 0, i64 0, i32 0, null, metadata !395, i32 0, null, null, null} ; [ DW_TAG_subroutine_type ] [line 0, size 0, align 0, offset 0] [from ]
!395 = metadata !{metadata !272, metadata !264}
!396 = metadata !{i32 786478, metadata !251, metadata !"_ZTSSs", metadata !"begin", metadata !"begin", metadata !"_ZNKSs5beginEv", i32 616, metadata !397, i1 false, i1 false, i32 0, i32 0, null, i32 256, i1 false, null, null, i32 0, metadata !30, i32 616
!397 = metadata !{i32 786453, i32 0, null, metadata !"", i32 0, i64 0, i64 0, i64 0, i32 0, null, metadata !398, i32 0, null, null, null} ; [ DW_TAG_subroutine_type ] [line 0, size 0, align 0, offset 0] [from ]
!398 = metadata !{metadata !302, metadata !260}
!399 = metadata !{i32 786478, metadata !251, metadata !"_ZTSSs", metadata !"end", metadata !"end", metadata !"_ZNSs3endEv", i32 624, metadata !394, i1 false, i1 false, i32 0, i32 0, null, i32 256, i1 false, null, null, i32 0, metadata !30, i32 624} ; [ D
!400 = metadata !{i32 786478, metadata !251, metadata !"_ZTSSs", metadata !"end", metadata !"end", metadata !"_ZNKSs3endEv", i32 635, metadata !397, i1 false, i1 false, i32 0, i32 0, null, i32 256, i1 false, null, null, i32 0, metadata !30, i32 635} ; [ 
!401 = metadata !{i32 786478, metadata !251, metadata !"_ZTSSs", metadata !"rbegin", metadata !"rbegin", metadata !"_ZNSs6rbeginEv", i32 644, metadata !402, i1 false, i1 false, i32 0, i32 0, null, i32 256, i1 false, null, null, i32 0, metadata !30, i32 6
!402 = metadata !{i32 786453, i32 0, null, metadata !"", i32 0, i64 0, i64 0, i64 0, i32 0, null, metadata !403, i32 0, null, null, null} ; [ DW_TAG_subroutine_type ] [line 0, size 0, align 0, offset 0] [from ]
!403 = metadata !{metadata !404, metadata !264}
!404 = metadata !{i32 786454, metadata !248, metadata !"_ZTSSs", metadata !"reverse_iterator", i32 131, i64 0, i64 0, i64 0, i32 0, metadata !"_ZTSSt16reverse_iteratorIN9__gnu_cxx17__normal_iteratorIPcSsEEE"} ; [ DW_TAG_typedef ] [reverse_iterator] [line
!405 = metadata !{i32 786478, metadata !251, metadata !"_ZTSSs", metadata !"rbegin", metadata !"rbegin", metadata !"_ZNKSs6rbeginEv", i32 653, metadata !406, i1 false, i1 false, i32 0, i32 0, null, i32 256, i1 false, null, null, i32 0, metadata !30, i32 
!406 = metadata !{i32 786453, i32 0, null, metadata !"", i32 0, i64 0, i64 0, i64 0, i32 0, null, metadata !407, i32 0, null, null, null} ; [ DW_TAG_subroutine_type ] [line 0, size 0, align 0, offset 0] [from ]
!407 = metadata !{metadata !408, metadata !260}
!408 = metadata !{i32 786454, metadata !248, metadata !"_ZTSSs", metadata !"const_reverse_iterator", i32 130, i64 0, i64 0, i64 0, i32 0, metadata !"_ZTSSt16reverse_iteratorIN9__gnu_cxx17__normal_iteratorIPKcSsEEE"} ; [ DW_TAG_typedef ] [const_reverse_it
!409 = metadata !{i32 786478, metadata !251, metadata !"_ZTSSs", metadata !"rend", metadata !"rend", metadata !"_ZNSs4rendEv", i32 662, metadata !402, i1 false, i1 false, i32 0, i32 0, null, i32 256, i1 false, null, null, i32 0, metadata !30, i32 662} ; 
!410 = metadata !{i32 786478, metadata !251, metadata !"_ZTSSs", metadata !"rend", metadata !"rend", metadata !"_ZNKSs4rendEv", i32 671, metadata !406, i1 false, i1 false, i32 0, i32 0, null, i32 256, i1 false, null, null, i32 0, metadata !30, i32 671} ;
!411 = metadata !{i32 786478, metadata !251, metadata !"_ZTSSs", metadata !"cbegin", metadata !"cbegin", metadata !"_ZNKSs6cbeginEv", i32 680, metadata !397, i1 false, i1 false, i32 0, i32 0, null, i32 256, i1 false, null, null, i32 0, metadata !30, i32 
!412 = metadata !{i32 786478, metadata !251, metadata !"_ZTSSs", metadata !"cend", metadata !"cend", metadata !"_ZNKSs4cendEv", i32 688, metadata !397, i1 false, i1 false, i32 0, i32 0, null, i32 256, i1 false, null, null, i32 0, metadata !30, i32 688} ;
!413 = metadata !{i32 786478, metadata !251, metadata !"_ZTSSs", metadata !"crbegin", metadata !"crbegin", metadata !"_ZNKSs7crbeginEv", i32 697, metadata !406, i1 false, i1 false, i32 0, i32 0, null, i32 256, i1 false, null, null, i32 0, metadata !30, i
!414 = metadata !{i32 786478, metadata !251, metadata !"_ZTSSs", metadata !"crend", metadata !"crend", metadata !"_ZNKSs5crendEv", i32 706, metadata !406, i1 false, i1 false, i32 0, i32 0, null, i32 256, i1 false, null, null, i32 0, metadata !30, i32 706
!415 = metadata !{i32 786478, metadata !251, metadata !"_ZTSSs", metadata !"size", metadata !"size", metadata !"_ZNKSs4sizeEv", i32 715, metadata !416, i1 false, i1 false, i32 0, i32 0, null, i32 256, i1 false, null, null, i32 0, metadata !30, i32 715} ;
!416 = metadata !{i32 786453, i32 0, null, metadata !"", i32 0, i64 0, i64 0, i64 0, i32 0, null, metadata !417, i32 0, null, null, null} ; [ DW_TAG_subroutine_type ] [line 0, size 0, align 0, offset 0] [from ]
!417 = metadata !{metadata !253, metadata !260}
